
niosII_training.elf:     file format elf32-littlenios2
niosII_training.elf
architecture: nios2:r1, flags 0x00000112:
EXEC_P, HAS_SYMS, D_PAGED
start address 0x000001a8

Program Header:
    LOAD off    0x00001000 vaddr 0x00000000 paddr 0x00000000 align 2**12
         filesz 0x00000000 memsz 0x00000000 flags r-x
    LOAD off    0x00001020 vaddr 0x00000020 paddr 0x00000020 align 2**12
         filesz 0x0001235c memsz 0x000125dc flags rwx
    LOAD off    0x00014000 vaddr 0x10000000 paddr 0x10000000 align 2**12
         filesz 0x00000040 memsz 0x00000040 flags r-x

Sections:
Idx Name          Size      VMA       LMA       File off  Algn
  0 .entry        00000000  00000000  00000000  00001000  2**5
                  CONTENTS, ALLOC, LOAD, READONLY, CODE
  1 .exceptions   00000188  00000020  00000020  00001020  2**2
                  CONTENTS, ALLOC, LOAD, READONLY, CODE
  2 .interrupt_handler_section 00000040  10000000  10000000  00014000  2**2
                  CONTENTS, ALLOC, LOAD, READONLY, CODE
  3 .text         0000f664  000001a8  000001a8  000011a8  2**2
                  CONTENTS, ALLOC, LOAD, READONLY, CODE
  4 .rodata       00000f70  0000f80c  0000f80c  0001080c  2**2
                  CONTENTS, ALLOC, LOAD, READONLY, DATA
  5 .rwdata       00001c00  0001077c  0001077c  0001177c  2**2
                  CONTENTS, ALLOC, LOAD, DATA, SMALL_DATA
  6 .bss          00000280  0001237c  0001237c  0001337c  2**2
                  ALLOC, SMALL_DATA
  7 .sdram        00000000  000125fc  000125fc  00014040  2**0
                  CONTENTS
  8 .instruction_tcm 00000000  10000040  10000040  00014040  2**0
                  CONTENTS
  9 .comment      0000002d  00000000  00000000  00014040  2**0
                  CONTENTS, READONLY
 10 .debug_aranges 000010e8  00000000  00000000  00014070  2**3
                  CONTENTS, READONLY, DEBUGGING, OCTETS
 11 .debug_info   0002f619  00000000  00000000  00015158  2**0
                  CONTENTS, READONLY, DEBUGGING, OCTETS
 12 .debug_abbrev 0000c316  00000000  00000000  00044771  2**0
                  CONTENTS, READONLY, DEBUGGING, OCTETS
 13 .debug_line   000183e4  00000000  00000000  00050a87  2**0
                  CONTENTS, READONLY, DEBUGGING, OCTETS
 14 .debug_frame  00002124  00000000  00000000  00068e6c  2**2
                  CONTENTS, READONLY, DEBUGGING, OCTETS
 15 .debug_str    00004113  00000000  00000000  0006af90  2**0
                  CONTENTS, READONLY, DEBUGGING, OCTETS
 16 .debug_loc    00020c92  00000000  00000000  0006f0a3  2**0
                  CONTENTS, READONLY, DEBUGGING, OCTETS
 17 .debug_alt_sim_info 00000020  00000000  00000000  0008fd38  2**2
                  CONTENTS, READONLY, DEBUGGING, OCTETS
 18 .debug_ranges 000028d8  00000000  00000000  0008fd58  2**3
                  CONTENTS, READONLY, DEBUGGING, OCTETS
 19 .thread_model 00000003  00000000  00000000  00095ba1  2**0
                  CONTENTS, READONLY
 20 .cpu          00000003  00000000  00000000  00095ba4  2**0
                  CONTENTS, READONLY
 21 .qsys         00000001  00000000  00000000  00095ba7  2**0
                  CONTENTS, READONLY
 22 .simulation_enabled 00000001  00000000  00000000  00095ba8  2**0
                  CONTENTS, READONLY
 23 .sysid_hash   00000004  00000000  00000000  00095ba9  2**0
                  CONTENTS, READONLY
 24 .sysid_base   00000004  00000000  00000000  00095bad  2**0
                  CONTENTS, READONLY
 25 .sysid_time   00000004  00000000  00000000  00095bb1  2**0
                  CONTENTS, READONLY
 26 .profiling_enabled 00000001  00000000  00000000  00095bb5  2**0
                  CONTENTS, READONLY
 27 .stderr_dev   00000009  00000000  00000000  00095bb6  2**0
                  CONTENTS, READONLY
 28 .stdin_dev    00000009  00000000  00000000  00095bbf  2**0
                  CONTENTS, READONLY
 29 .stdout_dev   00000009  00000000  00000000  00095bc8  2**0
                  CONTENTS, READONLY
 30 .sopc_system_name 00000006  00000000  00000000  00095bd1  2**0
                  CONTENTS, READONLY
 31 .quartus_project_dir 00000030  00000000  00000000  00095bd7  2**0
                  CONTENTS, READONLY
 32 .jdi          0000440b  00000000  00000000  00095c07  2**0
                  CONTENTS, READONLY
 33 .sopcinfo     0006a5e8  00000000  00000000  0009a012  2**0
                  CONTENTS, READONLY
SYMBOL TABLE:
00000000 l    d  .entry	00000000 .entry
00000020 l    d  .exceptions	00000000 .exceptions
10000000 l    d  .interrupt_handler_section	00000000 .interrupt_handler_section
000001a8 l    d  .text	00000000 .text
0000f80c l    d  .rodata	00000000 .rodata
0001077c l    d  .rwdata	00000000 .rwdata
0001237c l    d  .bss	00000000 .bss
000125fc l    d  .sdram	00000000 .sdram
10000040 l    d  .instruction_tcm	00000000 .instruction_tcm
00000000 l    d  .comment	00000000 .comment
00000000 l    d  .debug_aranges	00000000 .debug_aranges
00000000 l    d  .debug_info	00000000 .debug_info
00000000 l    d  .debug_abbrev	00000000 .debug_abbrev
00000000 l    d  .debug_line	00000000 .debug_line
00000000 l    d  .debug_frame	00000000 .debug_frame
00000000 l    d  .debug_str	00000000 .debug_str
00000000 l    d  .debug_loc	00000000 .debug_loc
00000000 l    d  .debug_alt_sim_info	00000000 .debug_alt_sim_info
00000000 l    d  .debug_ranges	00000000 .debug_ranges
00000000 l    df *ABS*	00000000 ../niosII_training_bsp//obj/HAL/src/crt0.o
000001ec l       .text	00000000 alt_after_alt_main
00000000 l    df *ABS*	00000000 alt_irq_handler.c
00000000 l    df *ABS*	00000000 alt_instruction_exception_entry.c
00000000 l    df *ABS*	00000000 simple.c
10000000 l     F .interrupt_handler_section	00000034 handle_button_interrupts
00000000 l    df *ABS*	00000000 specs.c
00000000 l    df *ABS*	00000000 specs.c
00000000 l    df *ABS*	00000000 exit.c
00000000 l    df *ABS*	00000000 impure.c
0001077c l     O .rwdata	00000424 impure_data
00000000 l    df *ABS*	00000000 memcpy.c
00000000 l    df *ABS*	00000000 printf.c
00000000 l    df *ABS*	00000000 puts.c
00000000 l    df *ABS*	00000000 strlen.c
00000000 l    df *ABS*	00000000 vfprintf.c
00002938 l     F .text	000000cc __sbprintf
00010094 l     O .rodata	00000010 blanks.1
00010084 l     O .rodata	00000010 zeroes.0
00000000 l    df *ABS*	00000000 wsetup.c
00000000 l    df *ABS*	00000000 __call_atexit.c
00000000 l    df *ABS*	00000000 dtoa.c
00002ca0 l     F .text	00000208 quorem
00000000 l    df *ABS*	00000000 fflush.c
00000000 l    df *ABS*	00000000 findfp.c
0000492c l     F .text	00000014 __fp_lock
00004958 l     F .text	00000014 __fp_unlock
0000496c l     F .text	00000174 __sinit.part.0
00000000 l    df *ABS*	00000000 mallocr.c
00000000 l    df *ABS*	00000000 fvwrite.c
00000000 l    df *ABS*	00000000 fwalk.c
00000000 l    df *ABS*	00000000 localeconv.c
00000000 l    df *ABS*	00000000 makebuf.c
00000000 l    df *ABS*	00000000 mallocr.c
00000000 l    df *ABS*	00000000 memchr.c
00000000 l    df *ABS*	00000000 memmove.c
00000000 l    df *ABS*	00000000 memset.c
00000000 l    df *ABS*	00000000 mprec.c
00010148 l     O .rodata	0000000c p05.0
00000000 l    df *ABS*	00000000 mallocr.c
00000000 l    df *ABS*	00000000 sbrkr.c
00000000 l    df *ABS*	00000000 stdio.c
00000000 l    df *ABS*	00000000 vfprintf.c
00007edc l     F .text	00000100 __sprint_r.part.0
00009368 l     F .text	000000cc __sbprintf
0001027c l     O .rodata	00000010 blanks.1
0001026c l     O .rodata	00000010 zeroes.0
00000000 l    df *ABS*	00000000 writer.c
00000000 l    df *ABS*	00000000 closer.c
00000000 l    df *ABS*	00000000 assert.c
00000000 l    df *ABS*	00000000 mallocr.c
00000000 l    df *ABS*	00000000 fclose.c
00009658 l     F .text	000000cc _fclose_r.part.0
00000000 l    df *ABS*	00000000 fiprintf.c
00000000 l    df *ABS*	00000000 fputwc.c
00000000 l    df *ABS*	00000000 fstatr.c
00000000 l    df *ABS*	00000000 int_errno.c
00000000 l    df *ABS*	00000000 isattyr.c
00000000 l    df *ABS*	00000000 locale.c
00000000 l    df *ABS*	00000000 lseekr.c
00000000 l    df *ABS*	00000000 mbtowc_r.c
00000000 l    df *ABS*	00000000 readr.c
00000000 l    df *ABS*	00000000 strcmp.c
00000000 l    df *ABS*	00000000 vfiprintfr_1.c
00000000 l    df *ABS*	00000000 wbuf.c
00000000 l    df *ABS*	00000000 wcrtomb.c
00000000 l    df *ABS*	00000000 wctomb_r.c
00000000 l    df *ABS*	00000000 abort.c
00000000 l    df *ABS*	00000000 ctype_.c
00000000 l    df *ABS*	00000000 signal.c
00000000 l    df *ABS*	00000000 signalr.c
00000000 l    df *ABS*	00000000 libgcc2.c
00000000 l    df *ABS*	00000000 libgcc2.c
00000000 l    df *ABS*	00000000 lib2-divmod.c
00000000 l    df *ABS*	00000000 adddf3.c
00000000 l    df *ABS*	00000000 divdf3.c
00000000 l    df *ABS*	00000000 eqdf2.c
00000000 l    df *ABS*	00000000 gedf2.c
00000000 l    df *ABS*	00000000 ledf2.c
00000000 l    df *ABS*	00000000 muldf3.c
00000000 l    df *ABS*	00000000 subdf3.c
00000000 l    df *ABS*	00000000 unorddf2.c
00000000 l    df *ABS*	00000000 fixdfsi.c
00000000 l    df *ABS*	00000000 floatsidf.c
00000000 l    df *ABS*	00000000 floatunsidf.c
00000000 l    df *ABS*	00000000 libgcc2.c
00000000 l    df *ABS*	00000000 libgcc2.c
00000000 l    df *ABS*	00000000 alt_close.c
00000000 l    df *ABS*	00000000 alt_dcache_flush_all.c
00000000 l    df *ABS*	00000000 alt_dev.c
0000dae0 l     F .text	00000014 alt_dev_null_write
00000000 l    df *ABS*	00000000 alt_errno.c
00000000 l    df *ABS*	00000000 alt_exit.c
00000000 l    df *ABS*	00000000 alt_fstat.c
00000000 l    df *ABS*	00000000 alt_getpid.c
00000000 l    df *ABS*	00000000 alt_gmon.c
0000dbd0 l     F .text	00000048 nios2_pcsample
0001239c l     O .bss	00000004 s_pcsamples
00012368 l     O .rwdata	00000004 pcsample_need_init
00012394 l     O .bss	00000004 mcount_slab_size
00012398 l     O .bss	00000004 mcount_slab_ptr
000123e4 l     O .bss	00000018 s_nios2_pcsample_alarm
00000000 l    df *ABS*	00000000 alt_icache_flush_all.c
00000000 l    df *ABS*	00000000 alt_iic.c
00000000 l    df *ABS*	00000000 alt_iic_isr_register.c
00000000 l    df *ABS*	00000000 alt_irq_vars.c
00000000 l    df *ABS*	00000000 alt_isatty.c
00000000 l    df *ABS*	00000000 alt_kill.c
00000000 l    df *ABS*	00000000 alt_lseek.c
00000000 l    df *ABS*	00000000 alt_main.c
00000000 l    df *ABS*	00000000 alt_malloc_lock.c
00000000 l    df *ABS*	00000000 alt_read.c
00000000 l    df *ABS*	00000000 alt_release_fd.c
00000000 l    df *ABS*	00000000 alt_sbrk.c
00012370 l     O .rwdata	00000004 heap_end
00000000 l    df *ABS*	00000000 alt_tick.c
00000000 l    df *ABS*	00000000 alt_write.c
00000000 l    df *ABS*	00000000 alt_sys_init.c
000112e0 l     O .rwdata	00001060 jtag_uart
00000000 l    df *ABS*	00000000 altera_avalon_jtag_uart_fd.c
00000000 l    df *ABS*	00000000 altera_avalon_jtag_uart_init.c
0000e6ac l     F .text	00000054 altera_avalon_jtag_uart_timeout
0000e700 l     F .text	00000114 altera_avalon_jtag_uart_irq
00000000 l    df *ABS*	00000000 altera_avalon_jtag_uart_ioctl.c
00000000 l    df *ABS*	00000000 altera_avalon_jtag_uart_read.c
00000000 l    df *ABS*	00000000 altera_avalon_jtag_uart_write.c
00000000 l    df *ABS*	00000000 altera_avalon_timer_sc.c
0000ec78 l     F .text	00000048 alt_avalon_timer_sc_irq
00000000 l    df *ABS*	00000000 perf_print_formatted_report.c
00000000 l    df *ABS*	00000000 alt_alarm_start.c
00000000 l    df *ABS*	00000000 alt_dev_llist_insert.c
00000000 l    df *ABS*	00000000 alt_do_ctors.c
00000000 l    df *ABS*	00000000 alt_do_dtors.c
00000000 l    df *ABS*	00000000 alt_icache_flush.c
00000000 l    df *ABS*	00000000 alt_io_redirect.c
00000000 l    df *ABS*	00000000 alt_open.c
00000000 l    df *ABS*	00000000 altera_nios2_gen2_irq.c
00000000 l    df *ABS*	00000000 altera_avalon_performance_counter.c
00000000 l    df *ABS*	00000000 alt_find_dev.c
00000000 l    df *ABS*	00000000 alt_find_file.c
00000000 l    df *ABS*	00000000 alt_get_fd.c
00000000 l    df *ABS*	00000000 atexit.c
00000000 l    df *ABS*	00000000 memcmp.c
00000000 l    df *ABS*	00000000 __atexit.c
00000000 l    df *ABS*	00000000 libgcc2.c
000123b8 g     O .bss	00000004 alt_instruction_exception_handler
0000761c g     F .text	0000007c _mprec_log10
00007720 g     F .text	0000006c __any_on
00009b1c g     F .text	00000064 _isatty_r
00010154 g     O .rodata	00000028 __mprec_tinytens
0000e120 g     F .text	0000006c alt_main
00000678 g     F .text	000000d8 _puts_r
000124fc g     O .bss	00000100 alt_irq
00009c98 g     F .text	00000070 _lseek_r
0000c594 g     F .text	0000008c .hidden __eqdf2
000125fc g       *ABS*	00000000 __alt_heap_start
0000a6f4 g     F .text	0000006c _kill_r
00000634 g     F .text	00000044 printf
0000a024 g     F .text	00000078 _wcrtomb_r
0000a210 g     F .text	000000a4 _signal_r
00007e60 g     F .text	00000068 __sseek
00004cd4 g     F .text	0000001c __sinit
0000f4b0 g     F .text	00000018 alt_get_cpu_freq
00009eac g     F .text	00000154 __swbuf_r
00009b80 g     F .text	00000080 _setlocale_r
00004ae0 g     F .text	00000074 __sfmoreglue
0000e19c g     F .text	00000010 __malloc_unlock
00006324 g     F .text	00000130 memmove
0000ed14 g     F .text	000001f8 perf_print_formatted_report
00004cb4 g     F .text	00000020 _cleanup
00006550 g     F .text	000000b0 _Balloc
0000c620 g     F .text	000000f4 .hidden __gtdf2
0000f418 g     F .text	00000014 altera_nios2_gen2_irq_init
10000000 g       *ABS*	00000000 __alt_mem_instruction_tcm
00000000 g     F .entry	00000000 __reset
000057bc g     F .text	00000014 __localeconv_l
0001237c g     O .bss	00000004 edge_capture
00009ab0 g     F .text	0000006c _fstat_r
0001238c g     O .bss	00000004 errno
00007dc0 g     F .text	00000014 __seofread
000123a8 g     O .bss	00000004 alt_argv
0001a340 g       *ABS*	00000000 _gp
0000dbbc g     F .text	00000014 getpid
00011114 g     O .rwdata	00000180 alt_fd_list
0000f4c8 g     F .text	00000084 alt_find_dev
000004ec g     F .text	0000010c memcpy
00004940 g     F .text	00000018 _cleanup_r
0000d834 g     F .text	000000c4 .hidden __floatsidf
0000f190 g     F .text	0000011c alt_io_redirect
0000c714 g     F .text	000000f4 .hidden __ltdf2
0000f80c g       *ABS*	00000000 __DTOR_END__
00000750 g     F .text	0000001c puts
0000f114 g     F .text	0000007c alt_exception_cause_generated_bad_addr
00007568 g     F .text	000000b4 __ratio
00009340 g     F .text	00000028 __vfiprintf_internal
0000e978 g     F .text	00000150 altera_avalon_jtag_uart_read
000005f8 g     F .text	0000003c _printf_r
0000b358 g     F .text	00000070 .hidden __udivsi3
0000df00 g     F .text	00000090 isatty
0000a2b4 g     F .text	000000d0 _raise_r
00009508 g     F .text	00000070 __assert_func
000101a4 g     O .rodata	000000c8 __mprec_tens
0000f0b8 g     F .text	0000005c alt_icache_flush
00012388 g     O .bss	00000004 __malloc_top_pad
0000a760 g     F .text	00000010 _getpid_r
0000f478 g     F .text	00000020 perf_get_num_starts
000057d0 g     F .text	00000018 _localeconv_r
000069e4 g     F .text	000000bc __i2b
000051a0 g     F .text	000004c4 __sfvwrite_r
0000a384 g     F .text	000000c8 __sigtramp_r
00007cfc g     F .text	00000064 _sbrk_r
00009d70 g     F .text	00000070 _read_r
00012350 g     O .rwdata	00000004 alt_max_fd
00009724 g     F .text	0000007c _fclose_r
0000489c g     F .text	00000090 fflush
00012384 g     O .bss	00000004 __malloc_max_sbrked_mem
0000b430 g     F .text	000008fc .hidden __adddf3
000072e4 g     F .text	00000114 __b2d
0000ad0c g     F .text	00000540 .hidden __umoddi3
0000e09c g     F .text	00000084 lseek
00012340 g     O .rwdata	00000004 _global_impure_ptr
0000778c g     F .text	00000570 _realloc_r
000125fc g       *ABS*	00000000 __bss_end
0000de8c g     F .text	00000074 alt_iic_isr_register
0000e3d8 g     F .text	00000100 alt_tick
0000a770 g     F .text	0000059c .hidden __udivdi3
000099fc g     F .text	00000030 _fputwc_r
0001017c g     O .rodata	00000028 __mprec_bigtens
00006774 g     F .text	00000144 __s2b
0000a184 g     F .text	00000024 abort
0000d8f8 g     F .text	0000009c .hidden __floatunsidf
00006fe8 g     F .text	00000060 __mcmp
00004d30 g     F .text	00000020 __fp_lock_all
0000de68 g     F .text	00000024 alt_ic_irq_enabled
0000e39c g     F .text	0000003c alt_alarm_stop
000123a0 g     O .bss	00000004 alt_irq_active
000000fc g     F .exceptions	00000074 alt_irq_handler
00011294 g     O .rwdata	00000028 alt_dev_null
0000dabc g     F .text	00000024 alt_dcache_flush_all
000068b8 g     F .text	00000070 __hi0bits
0000d7a8 g     F .text	0000008c .hidden __fixdfsi
000001a8 g       *ABS*	00000000 stext
0000dc18 g     F .text	000001a0 __mcount_record
00012354 g     O .rwdata	00000008 alt_dev_list
0000e4d8 g     F .text	000000d4 write
0000db38 g     F .text	00000084 fstat
0000df90 g     F .text	0000010c kill
0000c714 g     F .text	000000f4 .hidden __ledf2
00006d00 g     F .text	00000154 __pow5mult
00008000 g     F .text	00001340 ___vfiprintf_internal_r
0000b3c8 g     F .text	00000068 .hidden __umodsi3
000125fc g       *ABS*	00000000 end
0000e814 g     F .text	00000084 altera_avalon_jtag_uart_init
00000170 g     F .exceptions	00000038 alt_instruction_exception_entry
0000f80c g       *ABS*	00000000 __CTOR_LIST__
08000000 g       *ABS*	00000000 __alt_stack_pointer
0000ecc0 g     F .text	00000054 alt_avalon_timer_sc_init
0000d994 g     F .text	00000060 .hidden __clzsi2
0000eac8 g     F .text	000001b0 altera_avalon_jtag_uart_write
00004cf0 g     F .text	00000010 __sfp_lock_acquire
0000f80c g       *ABS*	00000000 etext
0000624c g     F .text	000000d8 memchr
00000810 g     F .text	00002100 ___vfprintf_internal_r
00004e98 g     F .text	00000308 _free_r
000103e0 g     O .rodata	00000180 _ctype_b
00009c00 g     F .text	00000018 __locale_mb_cur_max
00002b74 g     F .text	0000012c __call_exitprocs
00012348 g     O .rwdata	00000004 __malloc_sbrk_base
000001a8 g     F .text	00000048 _start
000123b4 g     O .bss	00000004 _alt_tick_rate
0000f790 g     F .text	0000007c .hidden __floatundidf
00006e54 g     F .text	00000194 __lshift
000123b0 g     O .bss	00000004 _alt_nticks
0000a514 g     F .text	000000ac signal
0000e248 g     F .text	000000d8 read
0000e5d8 g     F .text	00000068 alt_sys_init
0000f6f4 g     F .text	0000009c __register_exitproc
000112bc g     O .rwdata	00000024 alt_gmon_data
00006aa0 g     F .text	00000260 __multiply
0000e1ac g       .text	00000000 mcount
0000e898 g     F .text	00000054 altera_avalon_jtag_uart_close
000123bc g     O .bss	00000028 __malloc_current_mallinfo
000073f8 g     F .text	00000170 __d2b
0000e640 g     F .text	0000001c altera_avalon_jtag_uart_read_fd
0000f5f4 g     F .text	0000005c alt_get_fd
000094a4 g     F .text	00000064 _close_r
0000f42c g     F .text	00000030 perf_get_section_time
0000f670 g     F .text	00000084 memcmp
0000e678 g     F .text	0000001c altera_avalon_jtag_uart_close_fd
000125fc g       *ABS*	00000000 __alt_stack_base
0000e694 g     F .text	00000018 altera_avalon_jtag_uart_ioctl_fd
00002a04 g     F .text	00000170 __swsetup_r
0000bd2c g     F .text	00000868 .hidden __divdf3
00004b54 g     F .text	00000160 __sfp
00007698 g     F .text	00000088 __copybits
0000f45c g     F .text	0000001c perf_get_total_time
00010ba0 g     O .rwdata	00000408 __malloc_av_
00004d20 g     F .text	00000010 __sinit_lock_release
0000c808 g     F .text	00000680 .hidden __muldf3
00007d60 g     F .text	00000060 __sread
0000f54c g     F .text	000000a8 alt_find_file
0000ef98 g     F .text	00000078 alt_dev_llist_insert
0000e18c g     F .text	00000010 __malloc_lock
0000e350 g     F .text	0000004c sbrk
00004830 g     F .text	0000006c _fflush_r
00009598 g     F .text	000000c0 _calloc_r
0001237c g       *ABS*	00000000 __bss_start
00006454 g     F .text	000000fc memset
000002f8 g     F .text	000001b4 main
00000238 g     F .text	000000c0 same_adjacent4x
000123a4 g     O .bss	00000004 alt_envp
00012380 g     O .bss	00000004 __malloc_max_total_mem
0000e65c g     F .text	0000001c altera_avalon_jtag_uart_write_fd
0000a000 g     F .text	00000024 __swbuf
00007ec8 g     F .text	00000014 __sclose
08000000 g       *ABS*	00000000 __alt_heap_limit
000097a0 g     F .text	0000007c fclose
00002ea8 g     F .text	00001754 _dtoa_r
00005a60 g     F .text	000007ec _malloc_r
0000a148 g     F .text	0000003c __ascii_wctomb
00012364 g     O .rwdata	00000004 alt_errno
0000981c g     F .text	0000002c _fiprintf_r
0000a5c0 g     F .text	0000006c _init_signal
00005664 g     F .text	000000a4 _fwalk
00009d08 g     F .text	00000018 _mbtowc_r
0000b24c g     F .text	0000008c .hidden __divsi3
00004d70 g     F .text	00000128 _malloc_trim_r
0000f80c g       *ABS*	00000000 __CTOR_END__
00009de0 g     F .text	000000bc strcmp
0000f80c g       *ABS*	00000000 __DTOR_LIST__
000001f0 g     F .text	00000048 same_adjacent
0000c594 g     F .text	0000008c .hidden __nedf2
0000e5ac g     F .text	0000002c alt_irq_init
0000e320 g     F .text	00000030 alt_release_fd
00010560 g     O .rodata	00000100 .hidden __clz_tab
00012390 g     O .bss	00000004 _PathLocale
0000f650 g     F .text	00000020 atexit
00009434 g     F .text	00000070 _write_r
00009c18 g     F .text	00000080 setlocale
00012344 g     O .rwdata	00000004 _impure_ptr
000123ac g     O .bss	00000004 alt_argc
000045fc g     F .text	00000234 __sflush_r
0000f064 g     F .text	00000054 _do_dtors
00000020 g       .exceptions	00000000 alt_irq_entry
00009d20 g     F .text	00000050 __ascii_mbtowc
00007280 g     F .text	00000064 __ulp
00004d50 g     F .text	00000020 __fp_unlock_all
0001235c g     O .rwdata	00000008 alt_fs_list
000057e8 g     F .text	00000018 localeconv
000059bc g     F .text	000000a4 __swhatbuf_r
0000ddd0 g     F .text	00000010 alt_ic_isr_register
0001237c g       *ABS*	00000000 _edata
000125fc g       *ABS*	00000000 _end
0000988c g     F .text	00000170 __fputwc
0000e8ec g     F .text	0000008c altera_avalon_jtag_uart_ioctl
0000de24 g     F .text	00000044 alt_ic_irq_disable
00007dd4 g     F .text	0000008c __swrite
0001234c g     O .rwdata	00000004 __malloc_trim_threshold
0000f498 g     F .text	00000018 alt_get_performance_counter_base
000004ac g     F .text	00000040 exit
00009848 g     F .text	00000044 fiprintf
00009e9c g     F .text	00000010 _vfiprintf_r
00005708 g     F .text	000000b4 _fwalk_reent
00007048 g     F .text	00000238 __mdiff
0000b2d8 g     F .text	00000080 .hidden __modsi3
08000000 g       *ABS*	00000000 __alt_data_end
00000020 g     F .exceptions	00000000 alt_exception
00004d00 g     F .text	00000010 __sfp_lock_release
00000000 g       *ABS*	00000000 __alt_mem_sdram
000102dc g     O .rodata	00000101 _ctype_
0000d748 g     F .text	00000060 .hidden __unorddf2
0000daf4 g     F .text	00000044 _exit
0000ef0c g     F .text	0000008c alt_alarm_start
000123fc g     O .bss	00000100 __mcount_fn_head
00005800 g     F .text	000001bc __smakebuf_r
0000076c g     F .text	000000a4 strlen
0000a1a8 g     F .text	00000068 _init_signal_r
0000f2ac g     F .text	0000016c open
0000c620 g     F .text	000000f4 .hidden __gedf2
00009578 g     F .text	00000020 __assert
00007fdc g     F .text	00000024 __sprint_r
0000ddb8 g     F .text	00000018 alt_icache_flush_all
0001236c g     O .rwdata	00000004 alt_priority_mask
0000dde0 g     F .text	00000044 alt_ic_irq_enable
00002910 g     F .text	00000028 __vfprintf_internal
0000a130 g     F .text	00000018 _wctomb_r
0000ce88 g     F .text	000008c0 .hidden __subdf3
00006928 g     F .text	000000bc __lo0bits
0000e1ac g       .text	00000000 _mcount
00012374 g     O .rwdata	00000008 alt_alarm_list
0000f010 g     F .text	00000054 _do_ctors
0000a62c g     F .text	000000c8 __sigtramp
0000a09c g     F .text	00000094 wcrtomb
0000d9f4 g     F .text	000000c8 close
00010fa8 g     O .rwdata	0000016c __global_locale
00009a2c g     F .text	00000084 fputwc
0000a44c g     F .text	000000c8 raise
00004d10 g     F .text	00000010 __sinit_lock_acquire
00006630 g     F .text	00000144 __multadd
00006600 g     F .text	00000030 _Bfree



Disassembly of section .exceptions:

00000020 <alt_exception>:

#else /* ALT_EXCEPTION_STACK disabled */
        /* 
         * Reserve space on normal stack for registers about to be pushed.
         */
        addi  sp, sp, -76
  20:	deffed04 	addi	sp,sp,-76
         * documentation for details).
         *
         * Leave a gap in the stack frame at 4(sp) for the muldiv handler to
         * store zero into.
         */
        stw   ra,  0(sp)
  24:	dfc00015 	stw	ra,0(sp)
        stw   r1,   8(sp)
  28:	d8400215 	stw	at,8(sp)
        stw   r2,  12(sp)
  2c:	d8800315 	stw	r2,12(sp)
        stw   r3,  16(sp)
  30:	d8c00415 	stw	r3,16(sp)
        stw   r4,  20(sp)
  34:	d9000515 	stw	r4,20(sp)
        stw   r5,  24(sp)
  38:	d9400615 	stw	r5,24(sp)
        stw   r6,  28(sp)
  3c:	d9800715 	stw	r6,28(sp)
        stw   r7,  32(sp)
  40:	d9c00815 	stw	r7,32(sp)
        rdctl r5, estatus   /* Read early to avoid usage stall */
  44:	000b307a 	rdctl	r5,estatus
        stw   r8,  36(sp)
  48:	da000915 	stw	r8,36(sp)
        stw   r9,  40(sp)
  4c:	da400a15 	stw	r9,40(sp)
        stw   r10, 44(sp)
  50:	da800b15 	stw	r10,44(sp)
        stw   r11, 48(sp)
  54:	dac00c15 	stw	r11,48(sp)
        stw   r12, 52(sp)
  58:	db000d15 	stw	r12,52(sp)
        stw   r13, 56(sp)
  5c:	db400e15 	stw	r13,56(sp)
        stw   r14, 60(sp)
  60:	db800f15 	stw	r14,60(sp)
        stw   r15, 64(sp)
  64:	dbc01015 	stw	r15,64(sp)
        /*
         * ea-4 contains the address of the instruction being executed
         * when the exception occured. For interrupt exceptions, we will
         * will be re-issue the isntruction. Store it in 72(sp)
         */
        stw   r5,  68(sp)  /* estatus */
  68:	d9401115 	stw	r5,68(sp)
        addi  r15, ea, -4  /* instruction that caused exception */
  6c:	ebffff04 	addi	r15,ea,-4
        stw   r15,  72(sp)
  70:	dbc01215 	stw	r15,72(sp)
#else
        /*
         * Test to see if the exception was a software exception or caused 
         * by an external interrupt, and vector accordingly.
         */
        rdctl r4, ipending
  74:	0009313a 	rdctl	r4,ipending
        andi  r2, r5, 1
  78:	2880004c 	andi	r2,r5,1
        beq   r2, zero, .Lnot_irq
  7c:	10000326 	beq	r2,zero,8c <alt_exception+0x6c>
        beq   r4, zero, .Lnot_irq
  80:	20000226 	beq	r4,zero,8c <alt_exception+0x6c>
        /*
         * Now that all necessary registers have been preserved, call 
         * alt_irq_handler() to process the interrupts.
         */

        call alt_irq_handler
  84:	00000fc0 	call	fc <alt_irq_handler>

        .section .exceptions.irqreturn, "xa"

        br    .Lexception_exit
  88:	00000706 	br	a8 <alt_exception+0x88>
         * upon completion, so we write ea (address of instruction *after*
         * the one where the exception occured) into 72(sp). The actual
         * instruction that caused the exception is written in r2, which these
         * handlers will utilize.
         */
        stw ea, 72(sp) /* EA is PC+4 so will skip over instruction causing exception */
  8c:	df401215 	stw	ea,72(sp)
.Lunknown_16bit:
        addi.n r4, r4, 2 /* Need PC+2 to skip over instruction causing exception */
        stw r4, 72(sp)

#else /* CDX is not Enabled and all instructions are 32bits */
        ldw r2, -4(ea) /* Instruction value that caused exception */
  90:	e8bfff17 	ldw	r2,-4(ea)
         * debugger is present) or go into an infinite loop since the
         * handling behavior is undefined; in that case we will not return here.
         */

        /* Load exception-causing address as first argument (r4) */
        addi   r4, ea, -4
  94:	e93fff04 	addi	r4,ea,-4

        /* Call the instruction-exception entry */
        call   alt_instruction_exception_entry
  98:	00001700 	call	170 <alt_instruction_exception_entry>
         * instruction
         *
         * Return code was 0: Skip. The instruction after the exception is
         * already stored in 72(sp).
         */
        bne   r2, r0, .Lexception_exit
  9c:	1000021e 	bne	r2,zero,a8 <alt_exception+0x88>

        /*
         * Otherwise, modify 72(sp) to re-issue the instruction that caused the
         * exception.
         */
        addi  r15, ea, -4  /* instruction that caused exception */
  a0:	ebffff04 	addi	r15,ea,-4
        stw   r15,  72(sp)
  a4:	dbc01215 	stw	r15,72(sp)
        /* 
         * Restore the saved registers, so that all general purpose registers 
         * have been restored to their state at the time the interrupt occured.
         */

        ldw   r5,  68(sp)
  a8:	d9401117 	ldw	r5,68(sp)
        ldw   ea,  72(sp)  /* This becomes the PC once eret is executed */
  ac:	df401217 	ldw	ea,72(sp)
        ldw   ra,   0(sp)
  b0:	dfc00017 	ldw	ra,0(sp)

        wrctl estatus, r5
  b4:	2801707a 	wrctl	estatus,r5

        ldw   r1,   8(sp)
  b8:	d8400217 	ldw	at,8(sp)
        ldw   r2,  12(sp)
  bc:	d8800317 	ldw	r2,12(sp)
        ldw   r3,  16(sp)
  c0:	d8c00417 	ldw	r3,16(sp)
        ldw   r4,  20(sp)
  c4:	d9000517 	ldw	r4,20(sp)
        ldw   r5,  24(sp)
  c8:	d9400617 	ldw	r5,24(sp)
        ldw   r6,  28(sp)
  cc:	d9800717 	ldw	r6,28(sp)
        ldw   r7,  32(sp)
  d0:	d9c00817 	ldw	r7,32(sp)

#if defined(ALT_EXCEPTION_STACK) && defined(ALT_STACK_CHECK)
        ldw   et, %gprel(alt_exception_old_stack_limit)(gp)
#endif

        ldw   r8,  36(sp)
  d4:	da000917 	ldw	r8,36(sp)
        ldw   r9,  40(sp)
  d8:	da400a17 	ldw	r9,40(sp)
        ldw   r10, 44(sp)
  dc:	da800b17 	ldw	r10,44(sp)
        ldw   r11, 48(sp)
  e0:	dac00c17 	ldw	r11,48(sp)
        ldw   r12, 52(sp)
  e4:	db000d17 	ldw	r12,52(sp)
        ldw   r13, 56(sp)
  e8:	db400e17 	ldw	r13,56(sp)
        ldw   r14, 60(sp)
  ec:	db800f17 	ldw	r14,60(sp)
        ldw   r15, 64(sp)
  f0:	dbc01017 	ldw	r15,64(sp)
        stw   et, %gprel(alt_stack_limit_value)(gp)
        stw   zero, %gprel(alt_exception_old_stack_limit)(gp)
#endif /* ALT_STACK_CHECK */
        ldw   sp,  76(sp)
#else /* ALT_EXCEPTION_STACK disabled */
        addi  sp, sp, 76
  f4:	dec01304 	addi	sp,sp,76

        /*
         * Return to the interrupted instruction.
         */

        eret
  f8:	ef80083a 	eret

000000fc <alt_irq_handler>:
 * instruction is present if the macro ALT_CI_INTERRUPT_VECTOR defined.
 */

void alt_irq_handler (void) __attribute__ ((section (".exceptions")));
void alt_irq_handler (void)
{
  fc:	f811883a 	mov	r8,ra
 100:	000e1ac0 	call	e1ac <_mcount>
 104:	403f883a 	mov	ra,r8
 108:	defffe04 	addi	sp,sp,-8
 10c:	dfc00115 	stw	ra,4(sp)
 110:	dc000015 	stw	r16,0(sp)
#ifndef NIOS2_EIC_PRESENT
static ALT_INLINE alt_u32 ALT_ALWAYS_INLINE alt_irq_pending (void)
{
  alt_u32 active;

  NIOS2_READ_IPENDING (active);
 114:	000b313a 	rdctl	r5,ipending

  return active;
 118:	04000074 	movhi	r16,1
 11c:	84093f04 	addi	r16,r16,9468
     * called to clear the interrupt condition.
     */

    do
    {
      if (active & mask)
 120:	28c0004c 	andi	r3,r5,1
    mask = 1;
 124:	00800044 	movi	r2,1
      if (active & mask)
 128:	18000f1e 	bne	r3,zero,168 <alt_irq_handler+0x6c>
#else
        alt_irq[i].handler(alt_irq[i].context, i); 
#endif
        break;
      }
      mask <<= 1;
 12c:	1085883a 	add	r2,r2,r2
      if (active & mask)
 130:	2888703a 	and	r4,r5,r2
      i++;
 134:	18c00044 	addi	r3,r3,1
      if (active & mask)
 138:	203ffc26 	beq	r4,zero,12c <alt_irq_handler+0x30>
        alt_irq[i].handler(alt_irq[i].context); 
 13c:	180690fa 	slli	r3,r3,3
 140:	80c7883a 	add	r3,r16,r3
 144:	18800017 	ldw	r2,0(r3)
 148:	19000117 	ldw	r4,4(r3)
 14c:	103ee83a 	callr	r2
  NIOS2_READ_IPENDING (active);
 150:	000b313a 	rdctl	r5,ipending

    } while (1);

    active = alt_irq_pending ();
    
  } while (active);
 154:	283ff21e 	bne	r5,zero,120 <alt_irq_handler+0x24>
  /*
   * Notify the operating system that interrupt processing is complete.
   */ 

  ALT_OS_INT_EXIT();
}
 158:	dfc00117 	ldw	ra,4(sp)
 15c:	dc000017 	ldw	r16,0(sp)
 160:	dec00204 	addi	sp,sp,8
 164:	f800283a 	ret
    i = 0;
 168:	0007883a 	mov	r3,zero
 16c:	003ff306 	br	13c <alt_irq_handler+0x40>

00000170 <alt_instruction_exception_entry>:
 * that handler if it has been registered. Absent a handler, it will
 * break break or hang as discussed below.
 */
int 
alt_instruction_exception_entry (alt_u32 exception_pc)
{
 170:	f811883a 	mov	r8,ra
 174:	000e1ac0 	call	e1ac <_mcount>
 178:	403f883a 	mov	ra,r8
 17c:	200b883a 	mov	r5,r4
 * NIOS2_EXCEPTION_CAUSE_NOT_PRESENT. Your handling routine should
 * check the validity of the cause argument before proceeding.
 */
#ifdef NIOS2_HAS_EXTRA_EXCEPTION_INFO
  /* Get exception cause & "badaddr" */
  NIOS2_READ_EXCEPTION(cause);
 180:	000931fa 	rdctl	r4,exception
  cause = ( (cause & NIOS2_EXCEPTION_REG_CAUSE_MASK) >>
              NIOS2_EXCEPTION_REG_CAUSE_OFST );

  NIOS2_READ_BADADDR(badaddr);
 184:	000d333a 	rdctl	r6,badaddr
#else
  cause = NIOS2_EXCEPTION_CAUSE_NOT_PRESENT;
  badaddr = 0;
#endif /* NIOS2_HAS_EXTRA_EXCEPTION_INFO */

  if(alt_instruction_exception_handler) {
 188:	d0a01e17 	ldw	r2,-32648(gp)
 18c:	10000326 	beq	r2,zero,19c <alt_instruction_exception_entry+0x2c>
  cause = ( (cause & NIOS2_EXCEPTION_REG_CAUSE_MASK) >>
 190:	2008d0ba 	srli	r4,r4,2
     * Call handler. Its return value indicates whether the exception-causing
     * instruction should be re-issued. The code that called us,
     * alt_eceptions_entry.S, will look at this value and adjust the ea
     * register as necessary
     */
    return alt_instruction_exception_handler(cause, exception_pc, badaddr);
 194:	210007cc 	andi	r4,r4,31
 198:	1000683a 	jmp	r2
   *    (a peripheral which negates its interrupt output before its
   *    interrupt handler has been executed will cause spurious interrupts)
   */
  else {
#ifdef NIOS2_HAS_DEBUG_STUB
    NIOS2_BREAK();
 19c:	003da03a 	break	0
#endif /* NIOS2_HAS_DEBUG_STUB */
  }

  /* We should not get here. Remove compiler warning. */
  return NIOS2_EXCEPTION_RETURN_REISSUE_INST;
}
 1a0:	0005883a 	mov	r2,zero
 1a4:	f800283a 	ret

Disassembly of section .interrupt_handler_section:

10000000 <handle_button_interrupts>:
#ifdef ALT_ENHANCED_INTERRUPT_API_PRESENT
static void handle_button_interrupts(void* context)
#else
static void handle_button_interrupts(void* context, alt_u32 id)
#endif
{
10000000:	f811883a 	mov	r8,ra
10000004:	00000340 	call	10000034 <handle_button_interrupts+0x34>
10000008:	403f883a 	mov	ra,r8
PERF_BEGIN(PERFORMANCE_COUNTER_0_BASE, 1);
1000000c:	00820034 	movhi	r2,2048
10000010:	10040535 	stwio	zero,4116(r2)
/*
* Read the edge capture register on the button PIO.
* Store value.
*/
*edge_capture_ptr =
IORD_ALTERA_AVALON_PIO_EDGE_CAP(BUTTONS_BASE);
10000014:	10841b37 	ldwio	r2,4204(r2)
*edge_capture_ptr =
10000018:	20800015 	stw	r2,0(r4)
/* Write to the edge capture register to reset it. */
IOWR_ALTERA_AVALON_PIO_EDGE_CAP(BUTTONS_BASE, 0);
1000001c:	00820034 	movhi	r2,2048
10000020:	10041b35 	stwio	zero,4204(r2)
/* Read the PIO to delay ISR exit. This is done to prevent a
spurious interrupt in systems with high processor -> pio
latency and fast interrupts. */
IORD_ALTERA_AVALON_PIO_EDGE_CAP(BUTTONS_BASE);
10000024:	10841b37 	ldwio	r2,4204(r2)
PERF_END(PERFORMANCE_COUNTER_0_BASE, 1);
10000028:	00820034 	movhi	r2,2048
1000002c:	10040435 	stwio	zero,4112(r2)
}
10000030:	f800283a 	ret
10000034:	00400074 	movhi	at,1
10000038:	08786b04 	addi	at,at,-7764
1000003c:	0800683a 	jmp	at

Disassembly of section .text:

000001a8 <_start>:

    /* Assume the data cache size is always a power of two. */
#if NIOS2_DCACHE_SIZE > 0x8000
    movhi r2, %hi(NIOS2_DCACHE_SIZE)
#else
    movui r2, NIOS2_DCACHE_SIZE
     1a8:	00840014 	movui	r2,4096
#endif

0:
    initd 0(r2)
     1ac:	10000033 	initd	0(r2)
#ifdef NIOS2_ECC_PRESENT
    addi r2, r2, -4
#else
    addi r2, r2, -NIOS2_DCACHE_LINE_SIZE
     1b0:	10bff804 	addi	r2,r2,-32
#endif
    bgt r2, zero, 0b
     1b4:	00bffd16 	blt	zero,r2,1ac <_start+0x4>

    /*
     * Now that the caches are initialized, set up the stack pointer and global pointer.
     * The values provided by the linker are assumed to be correctly aligned.
     */
    movhi sp, %hi(__alt_stack_pointer)
     1b8:	06c20034 	movhi	sp,2048
    ori sp, sp, %lo(__alt_stack_pointer)
     1bc:	dec00014 	ori	sp,sp,0
    movhi gp, %hi(_gp)
     1c0:	06800074 	movhi	gp,1
    ori gp, gp, %lo(_gp)
     1c4:	d6a8d014 	ori	gp,gp,41792
 */
#ifndef ALT_SIM_OPTIMIZE
    /* Log that the BSS is about to be cleared. */
    ALT_LOG_PUTS(alt_log_msg_bss)

    movhi r2, %hi(__bss_start)
     1c8:	00800074 	movhi	r2,1
    ori r2, r2, %lo(__bss_start)
     1cc:	1088df14 	ori	r2,r2,9084

    movhi r3, %hi(__bss_end)
     1d0:	00c00074 	movhi	r3,1
    ori r3, r3, %lo(__bss_end)
     1d4:	18c97f14 	ori	r3,r3,9724

    beq r2, r3, 1f
     1d8:	10c00326 	beq	r2,r3,1e8 <_start+0x40>

0:
    stw zero, (r2)
     1dc:	10000015 	stw	zero,0(r2)
    addi r2, r2, 4
     1e0:	10800104 	addi	r2,r2,4
    bltu r2, r3, 0b
     1e4:	10fffd36 	bltu	r2,r3,1dc <_start+0x34>

    /* Log that alt_main is about to be called. */
    ALT_LOG_PUTS(alt_log_msg_alt_main)

    /* Call the C entry point. It should never return. */
    call alt_main
     1e8:	000e1200 	call	e120 <alt_main>

000001ec <alt_after_alt_main>:

    /* Wait in infinite loop in case alt_main does return. */
alt_after_alt_main:
    br alt_after_alt_main
     1ec:	003fff06 	br	1ec <alt_after_alt_main>

000001f0 <same_adjacent>:
#else
alt_irq_register( BUTTON_PIO_IRQ, edge_capture_ptr, handle_button_interrupts );
#endif
}

int same_adjacent(int* array, int size){
     1f0:	f811883a 	mov	r8,ra
     1f4:	000e1ac0 	call	e1ac <_mcount>
     1f8:	403f883a 	mov	ra,r8
	for(int i = 0; i < size - 1; i++){
     1fc:	297fffc4 	addi	r5,r5,-1
     200:	01400b0e 	bge	zero,r5,230 <same_adjacent+0x40>
     204:	20c00017 	ldw	r3,0(r4)
     208:	0005883a 	mov	r2,zero
     20c:	21000104 	addi	r4,r4,4
     210:	00000206 	br	21c <same_adjacent+0x2c>
     214:	10800044 	addi	r2,r2,1
     218:	11400526 	beq	r2,r5,230 <same_adjacent+0x40>
     21c:	180d883a 	mov	r6,r3
		if(array[i] == array[i+1]){
     220:	20c00017 	ldw	r3,0(r4)
	for(int i = 0; i < size - 1; i++){
     224:	21000104 	addi	r4,r4,4
		if(array[i] == array[i+1]){
     228:	19bffa1e 	bne	r3,r6,214 <same_adjacent+0x24>
			return i;
		}
	}
	return -1;
}
     22c:	f800283a 	ret
	return -1;
     230:	00bfffc4 	movi	r2,-1
}
     234:	f800283a 	ret

00000238 <same_adjacent4x>:

int same_adjacent4x(int* array, int size){
     238:	f811883a 	mov	r8,ra
     23c:	000e1ac0 	call	e1ac <_mcount>
     240:	403f883a 	mov	ra,r8
	int limlong = size >> 2;
     244:	2813d0ba 	srai	r9,r5,2
	int limshort = size - (size & 0x03);
	for(int i = 0; i < limlong; i++){
     248:	0240120e 	bge	zero,r9,294 <same_adjacent4x+0x5c>
     24c:	481290ba 	slli	r9,r9,2
     250:	2007883a 	mov	r3,r4
     254:	000d883a 	mov	r6,zero
     258:	00000806 	br	27c <same_adjacent4x+0x44>
		int j = i * 4;
		if(array[j] == array[j + 1]) return j;
		if(array[j + 1] == array[j + 2]) return j + 1;
     25c:	1a000217 	ldw	r8,8(r3)
     260:	3a001f26 	beq	r7,r8,2e0 <same_adjacent4x+0xa8>
		if(array[j + 2] == array[j + 3]) return j + 2;
     264:	19c00317 	ldw	r7,12(r3)
     268:	41c01f26 	beq	r8,r7,2e8 <same_adjacent4x+0xb0>
		if(array[j + 3] == array[j + 4]) return j + 3;
     26c:	1a000417 	ldw	r8,16(r3)
	for(int i = 0; i < limlong; i++){
     270:	18c00404 	addi	r3,r3,16
		if(array[j + 3] == array[j + 4]) return j + 3;
     274:	3a001e26 	beq	r7,r8,2f0 <same_adjacent4x+0xb8>
	for(int i = 0; i < limlong; i++){
     278:	32400626 	beq	r6,r9,294 <same_adjacent4x+0x5c>
		if(array[j] == array[j + 1]) return j;
     27c:	19c00117 	ldw	r7,4(r3)
     280:	1a000017 	ldw	r8,0(r3)
		int j = i * 4;
     284:	3005883a 	mov	r2,r6
	for(int i = 0; i < limlong; i++){
     288:	31800104 	addi	r6,r6,4
		if(array[j] == array[j + 1]) return j;
     28c:	41fff31e 	bne	r8,r7,25c <same_adjacent4x+0x24>
	}
	for(int i = limshort; i < size - 1; i++){
		if(array[i] == array[i + 1]) return i;
	}
	return -1;
}
     290:	f800283a 	ret
	int limshort = size - (size & 0x03);
     294:	00bfff04 	movi	r2,-4
     298:	2884703a 	and	r2,r5,r2
	for(int i = limshort; i < size - 1; i++){
     29c:	297fffc4 	addi	r5,r5,-1
     2a0:	11400d0e 	bge	r2,r5,2d8 <same_adjacent4x+0xa0>
     2a4:	100690ba 	slli	r3,r2,2
     2a8:	20cd883a 	add	r6,r4,r3
     2ac:	18c00104 	addi	r3,r3,4
     2b0:	31800017 	ldw	r6,0(r6)
     2b4:	20c7883a 	add	r3,r4,r3
     2b8:	00000206 	br	2c4 <same_adjacent4x+0x8c>
     2bc:	10800044 	addi	r2,r2,1
     2c0:	28800526 	beq	r5,r2,2d8 <same_adjacent4x+0xa0>
     2c4:	3009883a 	mov	r4,r6
		if(array[i] == array[i + 1]) return i;
     2c8:	19800017 	ldw	r6,0(r3)
	for(int i = limshort; i < size - 1; i++){
     2cc:	18c00104 	addi	r3,r3,4
		if(array[i] == array[i + 1]) return i;
     2d0:	313ffa1e 	bne	r6,r4,2bc <same_adjacent4x+0x84>
}
     2d4:	f800283a 	ret
	return -1;
     2d8:	00bfffc4 	movi	r2,-1
}
     2dc:	f800283a 	ret
		if(array[j + 1] == array[j + 2]) return j + 1;
     2e0:	10800044 	addi	r2,r2,1
}
     2e4:	f800283a 	ret
		if(array[j + 2] == array[j + 3]) return j + 2;
     2e8:	10800084 	addi	r2,r2,2
}
     2ec:	f800283a 	ret
		if(array[j + 3] == array[j + 4]) return j + 3;
     2f0:	108000c4 	addi	r2,r2,3
}
     2f4:	f800283a 	ret

000002f8 <main>:




int main(void)
{
     2f8:	f811883a 	mov	r8,ra
     2fc:	000e1ac0 	call	e1ac <_mcount>
     300:	403f883a 	mov	ra,r8
     304:	defdfe04 	addi	sp,sp,-2056
     308:	dfc20115 	stw	ra,2052(sp)
     30c:	dc020015 	stw	r16,2048(sp)
	int arr[510] = {0, 1, 2, 3, 4, 5, 6, 7, 8, 9, 10, 11, 12, 13, 14, 15, 16, 17, 18, 19, 20, 21, 22, 23, 24, 25, 26, 27, 28, 29, 30, 31, 32, 33, 34, 35, 36, 37, 38, 39, 40, 41, 42, 43, 44, 45, 46, 47, 48, 49, 50, 51, 52, 53, 54, 55, 56, 57, 58, 59, 60, 61, 62, 63, 64, 65, 66, 67, 68, 69, 70, 71, 72, 73, 74, 75, 76, 77, 78, 79, 80, 81, 82, 83, 84, 85, 86, 87, 88, 89, 90, 91, 92, 93, 94, 95, 96, 97, 98, 99, 100, 101, 102, 103, 104, 105, 106, 107, 108, 109, 110, 111, 112, 113, 114, 115, 116, 117, 118, 119, 120, 121, 122, 123, 124, 125, 126, 127, 128, 129, 130, 131, 132, 133, 134, 135, 136, 137, 138, 139, 140, 141, 142, 143, 144, 145, 146, 147, 148, 149, 150, 151, 152, 153, 154, 155, 156, 157, 158, 159, 160, 161, 162, 163, 164, 165, 166, 167, 168, 169, 170, 171, 172, 173, 174, 175, 176, 177, 178, 179, 180, 181, 182, 183, 184, 185, 186, 187, 188, 189, 190, 191, 192, 193, 194, 195, 196, 197, 198, 199, 200, 201, 202, 203, 204, 205, 206, 207, 208, 209, 210, 211, 212, 213, 214, 215, 216, 217, 218, 219, 220, 221, 222, 223, 224, 225, 226, 227, 228, 229, 230, 231, 232, 233, 234, 235, 236, 237, 238, 239, 240, 241, 242, 243, 244, 245, 246, 247, 248, 249, 250, 251, 252, 253, 254, 255, 256, 257, 258, 259, 260, 261, 262, 263, 264, 265, 266, 267, 268, 269, 270, 271, 272, 273, 274, 275, 276, 277, 278, 279, 280, 281, 282, 283, 284, 285, 286, 287, 288, 289, 290, 291, 292, 293, 294, 295, 296, 297, 298, 299, 300, 301, 302, 303, 304, 305, 306, 307, 308, 309, 310, 311, 312, 313, 314, 315, 316, 317, 318, 319, 320, 321, 322, 323, 324, 325, 326, 327, 328, 329, 330, 331, 332, 333, 334, 335, 336, 337, 338, 339, 340, 341, 342, 343, 344, 345, 346, 347, 348, 349, 350, 351, 352, 353, 354, 355, 356, 357, 358, 359, 360, 361, 362, 363, 364, 365, 366, 367, 368, 369, 370, 371, 372, 373, 374, 375, 376, 377, 378, 379, 380, 381, 382, 383, 384, 385, 386, 387, 388, 389, 390, 391, 392, 393, 394, 395, 396, 397, 398, 399, 400, 401, 402, 403, 404, 405, 406, 407, 408, 409, 410, 411, 412, 413, 414, 415, 416, 417, 418, 419, 420, 421, 422, 423, 424, 425, 426, 427, 428, 429, 430, 431, 432, 433, 434, 435, 436, 437, 438, 439, 440, 441, 442, 443, 444, 445, 446, 447, 448, 449, 450, 451, 452, 453, 454, 455, 456, 457, 458, 459, 460, 461, 462, 463, 464, 465, 466, 467, 468, 469, 470, 471, 472, 473, 474, 475, 476, 477, 478, 479, 480, 481, 482, 483, 484, 485, 486, 487, 488, 489, 490, 491, 492, 493, 494, 495, 496, 497, 498, 499, 500, 501, 502, 503, 504, 505, 506, 507, 508, 508};
     310:	01400074 	movhi	r5,1
     314:	0181fe04 	movi	r6,2040
     318:	297e1104 	addi	r5,r5,-1980
     31c:	d9000204 	addi	r4,sp,8
     320:	00004ec0 	call	4ec <memcpy>
	alt_icache_flush_all();
     324:	000ddb80 	call	ddb8 <alt_icache_flush_all>
	alt_dcache_flush_all();
     328:	000dabc0 	call	dabc <alt_dcache_flush_all>
	int buttons;  // Use to hold button pressed value
	int led = 0x01;  // Use to write to led
	int number_of_runs = 10;

	int accumulator = 0;
	printf("Simple\n");   // print a message to show that program is running
     32c:	01000074 	movhi	r4,1
     330:	213e0304 	addi	r4,r4,-2036
     334:	00007500 	call	750 <puts>

	IOWR_ALTERA_AVALON_PIO_DATA(GREEN_LED_BASE,led); // write initial value to pio
     338:	04000044 	movi	r16,1
     33c:	00820034 	movhi	r2,2048
     340:	14041c35 	stwio	r16,4208(r2)
IOWR_ALTERA_AVALON_PIO_IRQ_MASK(BUTTONS_BASE, 0xf);
     344:	00c003c4 	movi	r3,15
     348:	10c41a35 	stwio	r3,4200(r2)
IOWR_ALTERA_AVALON_PIO_EDGE_CAP(BUTTONS_BASE, 0x0);
     34c:	10041b35 	stwio	zero,4204(r2)
alt_ic_isr_register(BUTTONS_IRQ_INTERRUPT_CONTROLLER_ID, BUTTONS_IRQ, handle_button_interrupts, edge_capture_ptr, 0x0);
     350:	01840034 	movhi	r6,4096
     354:	d8000015 	stw	zero,0(sp)
     358:	d1e00f04 	addi	r7,gp,-32708
     35c:	31800004 	addi	r6,r6,0
     360:	01400084 	movi	r5,2
     364:	0009883a 	mov	r4,zero
     368:	000ddd00 	call	ddd0 <alt_ic_isr_register>
	init_button_pio();

	PERF_RESET(PERFORMANCE_COUNTER_0_BASE);
     36c:	00820034 	movhi	r2,2048
     370:	14040035 	stwio	r16,4096(r2)
	PERF_START_MEASURING (PERFORMANCE_COUNTER_0_BASE);
     374:	10040135 	stwio	zero,4100(r2)
     378:	01c01904 	movi	r7,100
	int accumulator = 0;
     37c:	000b883a 	mov	r5,zero
	for(int i = 0; i < 100; i++){
		PERF_BEGIN(PERFORMANCE_COUNTER_0_BASE, 2);
     380:	00820034 	movhi	r2,2048
     384:	10040935 	stwio	zero,4132(r2)
     388:	d9000304 	addi	r4,sp,12
     38c:	0007883a 	mov	r3,zero
	for(int i = 0; i < size - 1; i++){
     390:	0005883a 	mov	r2,zero
		if(array[i] == array[i+1]){
     394:	180d883a 	mov	r6,r3
     398:	20c00017 	ldw	r3,0(r4)
     39c:	19800526 	beq	r3,r6,3b4 <main+0xbc>
	for(int i = 0; i < size - 1; i++){
     3a0:	10800044 	addi	r2,r2,1
     3a4:	11807f58 	cmpnei	r6,r2,509
     3a8:	21000104 	addi	r4,r4,4
     3ac:	303ff91e 	bne	r6,zero,394 <main+0x9c>
	return -1;
     3b0:	00bfffc4 	movi	r2,-1
		accumulator += same_adjacent(arr, ARRAY_SIZE);
     3b4:	288b883a 	add	r5,r5,r2
		PERF_END(PERFORMANCE_COUNTER_0_BASE, 2);
     3b8:	00820034 	movhi	r2,2048
     3bc:	10040835 	stwio	zero,4128(r2)
	for(int i = 0; i < 100; i++){
     3c0:	39ffffc4 	addi	r7,r7,-1
     3c4:	383fee1e 	bne	r7,zero,380 <main+0x88>
	}
	printf("%d\n", accumulator);
     3c8:	01000074 	movhi	r4,1
     3cc:	213e0504 	addi	r4,r4,-2028
     3d0:	00006340 	call	634 <printf>
	alt_icache_flush_all();
     3d4:	000ddb80 	call	ddb8 <alt_icache_flush_all>
	alt_dcache_flush_all();
     3d8:	000dabc0 	call	dabc <alt_dcache_flush_all>
     3dc:	02001904 	movi	r8,100
	accumulator = 0;
     3e0:	000b883a 	mov	r5,zero
     3e4:	d9c1ff04 	addi	r7,sp,2044
	for(int i = 0; i < 100; i++){
		PERF_BEGIN(PERFORMANCE_COUNTER_0_BASE, 3);
     3e8:	00820034 	movhi	r2,2048
     3ec:	10040d35 	stwio	zero,4148(r2)
     3f0:	d8800304 	addi	r2,sp,12
     3f4:	0007883a 	mov	r3,zero
     3f8:	000d883a 	mov	r6,zero
		if(array[j] == array[j + 1]) return j;
     3fc:	11000017 	ldw	r4,0(r2)
     400:	31000a26 	beq	r6,r4,42c <main+0x134>
		if(array[j + 1] == array[j + 2]) return j + 1;
     404:	11800117 	ldw	r6,4(r2)
     408:	21802226 	beq	r4,r6,494 <main+0x19c>
		if(array[j + 2] == array[j + 3]) return j + 2;
     40c:	11000217 	ldw	r4,8(r2)
     410:	31002226 	beq	r6,r4,49c <main+0x1a4>
		if(array[j + 3] == array[j + 4]) return j + 3;
     414:	11800317 	ldw	r6,12(r2)
     418:	21802226 	beq	r4,r6,4a4 <main+0x1ac>
	for(int i = 0; i < limlong; i++){
     41c:	10800404 	addi	r2,r2,16
     420:	18c00104 	addi	r3,r3,4
     424:	38bff51e 	bne	r7,r2,3fc <main+0x104>
     428:	00c07f04 	movi	r3,508
		accumulator += same_adjacent4x(arr, ARRAY_SIZE);
     42c:	28cb883a 	add	r5,r5,r3
		PERF_END(PERFORMANCE_COUNTER_0_BASE, 3);
     430:	00820034 	movhi	r2,2048
     434:	10040c35 	stwio	zero,4144(r2)
	for(int i = 0; i < 100; i++){
     438:	423fffc4 	addi	r8,r8,-1
     43c:	403fea1e 	bne	r8,zero,3e8 <main+0xf0>
	}
	printf("%d\n", accumulator);
     440:	01000074 	movhi	r4,1
     444:	213e0504 	addi	r4,r4,-2028
     448:	00006340 	call	634 <printf>

	PERF_STOP_MEASURING(PERFORMANCE_COUNTER_0_BASE);
     44c:	00820034 	movhi	r2,2048
     450:	10040035 	stwio	zero,4096(r2)
	perf_print_formatted_report(PERFORMANCE_COUNTER_0_BASE, ALT_CPU_FREQ, 3, "interrupt", "same_adjacent", "same_adjacent4x");
     454:	00c00074 	movhi	r3,1
     458:	00800074 	movhi	r2,1
     45c:	18fe0904 	addi	r3,r3,-2012
     460:	10be0d04 	addi	r2,r2,-1996
     464:	01c00074 	movhi	r7,1
     468:	0140bef4 	movhi	r5,763
     46c:	01020034 	movhi	r4,2048
     470:	21040004 	addi	r4,r4,4096
     474:	d8c00115 	stw	r3,4(sp)
     478:	d8800015 	stw	r2,0(sp)
     47c:	39fe0604 	addi	r7,r7,-2024
     480:	018000c4 	movi	r6,3
     484:	297c2004 	addi	r5,r5,-3968
     488:	000ed140 	call	ed14 <perf_print_formatted_report>

	exit(0);
     48c:	0009883a 	mov	r4,zero
     490:	00004ac0 	call	4ac <exit>
		if(array[j + 1] == array[j + 2]) return j + 1;
     494:	18c00044 	addi	r3,r3,1
     498:	003fe406 	br	42c <main+0x134>
		if(array[j + 2] == array[j + 3]) return j + 2;
     49c:	18c00084 	addi	r3,r3,2
     4a0:	003fe206 	br	42c <main+0x134>
		if(array[j + 3] == array[j + 4]) return j + 3;
     4a4:	18c000c4 	addi	r3,r3,3
     4a8:	003fe006 	br	42c <main+0x134>

000004ac <exit>:
     4ac:	f811883a 	mov	r8,ra
     4b0:	000e1ac0 	call	e1ac <_mcount>
     4b4:	403f883a 	mov	ra,r8
     4b8:	defffe04 	addi	sp,sp,-8
     4bc:	dfc00115 	stw	ra,4(sp)
     4c0:	dc000015 	stw	r16,0(sp)
     4c4:	000b883a 	mov	r5,zero
     4c8:	2021883a 	mov	r16,r4
     4cc:	0002b740 	call	2b74 <__call_exitprocs>
     4d0:	00800074 	movhi	r2,1
     4d4:	1108d017 	ldw	r4,9024(r2)
     4d8:	20800f17 	ldw	r2,60(r4)
     4dc:	10000126 	beq	r2,zero,4e4 <exit+0x38>
     4e0:	103ee83a 	callr	r2
     4e4:	8009883a 	mov	r4,r16
     4e8:	000daf40 	call	daf4 <_exit>

000004ec <memcpy>:
     4ec:	f811883a 	mov	r8,ra
     4f0:	000e1ac0 	call	e1ac <_mcount>
     4f4:	403f883a 	mov	ra,r8
     4f8:	30c00430 	cmpltui	r3,r6,16
     4fc:	2005883a 	mov	r2,r4
     500:	18002d1e 	bne	r3,zero,5b8 <memcpy+0xcc>
     504:	2906b03a 	or	r3,r5,r4
     508:	18c000cc 	andi	r3,r3,3
     50c:	1800351e 	bne	r3,zero,5e4 <memcpy+0xf8>
     510:	32fffc04 	addi	r11,r6,-16
     514:	5816d13a 	srli	r11,r11,4
     518:	280f883a 	mov	r7,r5
     51c:	2007883a 	mov	r3,r4
     520:	5ac00044 	addi	r11,r11,1
     524:	5816913a 	slli	r11,r11,4
     528:	22d5883a 	add	r10,r4,r11
     52c:	39000117 	ldw	r4,4(r7)
     530:	3a400017 	ldw	r9,0(r7)
     534:	3a000217 	ldw	r8,8(r7)
     538:	19000115 	stw	r4,4(r3)
     53c:	39000317 	ldw	r4,12(r7)
     540:	1a400015 	stw	r9,0(r3)
     544:	1a000215 	stw	r8,8(r3)
     548:	19000315 	stw	r4,12(r3)
     54c:	18c00404 	addi	r3,r3,16
     550:	39c00404 	addi	r7,r7,16
     554:	50fff51e 	bne	r10,r3,52c <memcpy+0x40>
     558:	3100030c 	andi	r4,r6,12
     55c:	2acb883a 	add	r5,r5,r11
     560:	320003cc 	andi	r8,r6,15
     564:	20002226 	beq	r4,zero,5f0 <memcpy+0x104>
     568:	280f883a 	mov	r7,r5
     56c:	1813883a 	mov	r9,r3
     570:	39c00104 	addi	r7,r7,4
     574:	3abfff17 	ldw	r10,-4(r7)
     578:	41c9c83a 	sub	r4,r8,r7
     57c:	2909883a 	add	r4,r5,r4
     580:	4a800015 	stw	r10,0(r9)
     584:	21000128 	cmpgeui	r4,r4,4
     588:	4a400104 	addi	r9,r9,4
     58c:	203ff81e 	bne	r4,zero,570 <memcpy+0x84>
     590:	413fff04 	addi	r4,r8,-4
     594:	2008d0ba 	srli	r4,r4,2
     598:	318000cc 	andi	r6,r6,3
     59c:	31ffffc4 	addi	r7,r6,-1
     5a0:	21000044 	addi	r4,r4,1
     5a4:	200890ba 	slli	r4,r4,2
     5a8:	1907883a 	add	r3,r3,r4
     5ac:	290b883a 	add	r5,r5,r4
     5b0:	3000041e 	bne	r6,zero,5c4 <memcpy+0xd8>
     5b4:	f800283a 	ret
     5b8:	2007883a 	mov	r3,r4
     5bc:	31ffffc4 	addi	r7,r6,-1
     5c0:	303ffc26 	beq	r6,zero,5b4 <memcpy+0xc8>
     5c4:	39c00044 	addi	r7,r7,1
     5c8:	19cf883a 	add	r7,r3,r7
     5cc:	29800003 	ldbu	r6,0(r5)
     5d0:	18c00044 	addi	r3,r3,1
     5d4:	29400044 	addi	r5,r5,1
     5d8:	19bfffc5 	stb	r6,-1(r3)
     5dc:	38fffb1e 	bne	r7,r3,5cc <memcpy+0xe0>
     5e0:	f800283a 	ret
     5e4:	31ffffc4 	addi	r7,r6,-1
     5e8:	2007883a 	mov	r3,r4
     5ec:	003ff506 	br	5c4 <memcpy+0xd8>
     5f0:	400d883a 	mov	r6,r8
     5f4:	003ff106 	br	5bc <memcpy+0xd0>

000005f8 <_printf_r>:
     5f8:	f811883a 	mov	r8,ra
     5fc:	000e1ac0 	call	e1ac <_mcount>
     600:	403f883a 	mov	ra,r8
     604:	defffd04 	addi	sp,sp,-12
     608:	dfc00015 	stw	ra,0(sp)
     60c:	2805883a 	mov	r2,r5
     610:	d9800115 	stw	r6,4(sp)
     614:	d9c00215 	stw	r7,8(sp)
     618:	21400217 	ldw	r5,8(r4)
     61c:	d9c00104 	addi	r7,sp,4
     620:	100d883a 	mov	r6,r2
     624:	00008100 	call	810 <___vfprintf_internal_r>
     628:	dfc00017 	ldw	ra,0(sp)
     62c:	dec00304 	addi	sp,sp,12
     630:	f800283a 	ret

00000634 <printf>:
     634:	f811883a 	mov	r8,ra
     638:	000e1ac0 	call	e1ac <_mcount>
     63c:	403f883a 	mov	ra,r8
     640:	defffc04 	addi	sp,sp,-16
     644:	dfc00015 	stw	ra,0(sp)
     648:	d9400115 	stw	r5,4(sp)
     64c:	d9800215 	stw	r6,8(sp)
     650:	d9c00315 	stw	r7,12(sp)
     654:	00800074 	movhi	r2,1
     658:	1088d117 	ldw	r2,9028(r2)
     65c:	200b883a 	mov	r5,r4
     660:	d9800104 	addi	r6,sp,4
     664:	11000217 	ldw	r4,8(r2)
     668:	00029100 	call	2910 <__vfprintf_internal>
     66c:	dfc00017 	ldw	ra,0(sp)
     670:	dec00404 	addi	sp,sp,16
     674:	f800283a 	ret

00000678 <_puts_r>:
     678:	f811883a 	mov	r8,ra
     67c:	000e1ac0 	call	e1ac <_mcount>
     680:	403f883a 	mov	ra,r8
     684:	defff504 	addi	sp,sp,-44
     688:	dfc00a15 	stw	ra,40(sp)
     68c:	dc400915 	stw	r17,36(sp)
     690:	dc000815 	stw	r16,32(sp)
     694:	2021883a 	mov	r16,r4
     698:	2809883a 	mov	r4,r5
     69c:	2823883a 	mov	r17,r5
     6a0:	000076c0 	call	76c <strlen>
     6a4:	11000044 	addi	r4,r2,1
     6a8:	d8800515 	stw	r2,20(sp)
     6ac:	00800044 	movi	r2,1
     6b0:	00c00074 	movhi	r3,1
     6b4:	d8800715 	stw	r2,28(sp)
     6b8:	d8800404 	addi	r2,sp,16
     6bc:	18c00f04 	addi	r3,r3,60
     6c0:	d8800115 	stw	r2,4(sp)
     6c4:	00800084 	movi	r2,2
     6c8:	dc400415 	stw	r17,16(sp)
     6cc:	d8c00615 	stw	r3,24(sp)
     6d0:	d9000315 	stw	r4,12(sp)
     6d4:	d8800215 	stw	r2,8(sp)
     6d8:	81400217 	ldw	r5,8(r16)
     6dc:	80000226 	beq	r16,zero,6e8 <_puts_r+0x70>
     6e0:	80800e17 	ldw	r2,56(r16)
     6e4:	10001326 	beq	r2,zero,734 <_puts_r+0xbc>
     6e8:	2880030b 	ldhu	r2,12(r5)
     6ec:	10c8000c 	andi	r3,r2,8192
     6f0:	1800061e 	bne	r3,zero,70c <_puts_r+0x94>
     6f4:	28c01917 	ldw	r3,100(r5)
     6f8:	0137ffc4 	movi	r4,-8193
     6fc:	10880014 	ori	r2,r2,8192
     700:	1906703a 	and	r3,r3,r4
     704:	2880030d 	sth	r2,12(r5)
     708:	28c01915 	stw	r3,100(r5)
     70c:	d9800104 	addi	r6,sp,4
     710:	8009883a 	mov	r4,r16
     714:	00051a00 	call	51a0 <__sfvwrite_r>
     718:	10000b1e 	bne	r2,zero,748 <_puts_r+0xd0>
     71c:	00800284 	movi	r2,10
     720:	dfc00a17 	ldw	ra,40(sp)
     724:	dc400917 	ldw	r17,36(sp)
     728:	dc000817 	ldw	r16,32(sp)
     72c:	dec00b04 	addi	sp,sp,44
     730:	f800283a 	ret
     734:	8009883a 	mov	r4,r16
     738:	d9400015 	stw	r5,0(sp)
     73c:	0004cd40 	call	4cd4 <__sinit>
     740:	d9400017 	ldw	r5,0(sp)
     744:	003fe806 	br	6e8 <_puts_r+0x70>
     748:	00bfffc4 	movi	r2,-1
     74c:	003ff406 	br	720 <_puts_r+0xa8>

00000750 <puts>:
     750:	f811883a 	mov	r8,ra
     754:	000e1ac0 	call	e1ac <_mcount>
     758:	403f883a 	mov	ra,r8
     75c:	00800074 	movhi	r2,1
     760:	200b883a 	mov	r5,r4
     764:	1108d117 	ldw	r4,9028(r2)
     768:	00006781 	jmpi	678 <_puts_r>

0000076c <strlen>:
     76c:	f811883a 	mov	r8,ra
     770:	000e1ac0 	call	e1ac <_mcount>
     774:	403f883a 	mov	ra,r8
     778:	208000cc 	andi	r2,r4,3
     77c:	10000926 	beq	r2,zero,7a4 <strlen+0x38>
     780:	2005883a 	mov	r2,r4
     784:	00000306 	br	794 <strlen+0x28>
     788:	10800044 	addi	r2,r2,1
     78c:	10c000cc 	andi	r3,r2,3
     790:	18000526 	beq	r3,zero,7a8 <strlen+0x3c>
     794:	10c00007 	ldb	r3,0(r2)
     798:	183ffb1e 	bne	r3,zero,788 <strlen+0x1c>
     79c:	1105c83a 	sub	r2,r2,r4
     7a0:	f800283a 	ret
     7a4:	2005883a 	mov	r2,r4
     7a8:	11400017 	ldw	r5,0(r2)
     7ac:	01ffbff4 	movhi	r7,65279
     7b0:	39ffbfc4 	addi	r7,r7,-257
     7b4:	29c7883a 	add	r3,r5,r7
     7b8:	01a02074 	movhi	r6,32897
     7bc:	014a303a 	nor	r5,zero,r5
     7c0:	1946703a 	and	r3,r3,r5
     7c4:	31a02004 	addi	r6,r6,-32640
     7c8:	1986703a 	and	r3,r3,r6
     7cc:	1800071e 	bne	r3,zero,7ec <strlen+0x80>
     7d0:	11400117 	ldw	r5,4(r2)
     7d4:	10800104 	addi	r2,r2,4
     7d8:	29c7883a 	add	r3,r5,r7
     7dc:	014a303a 	nor	r5,zero,r5
     7e0:	1946703a 	and	r3,r3,r5
     7e4:	1986703a 	and	r3,r3,r6
     7e8:	183ff926 	beq	r3,zero,7d0 <strlen+0x64>
     7ec:	10c00007 	ldb	r3,0(r2)
     7f0:	183fea26 	beq	r3,zero,79c <strlen+0x30>
     7f4:	10c00047 	ldb	r3,1(r2)
     7f8:	10800044 	addi	r2,r2,1
     7fc:	183fe726 	beq	r3,zero,79c <strlen+0x30>
     800:	10c00047 	ldb	r3,1(r2)
     804:	10800044 	addi	r2,r2,1
     808:	183ffa1e 	bne	r3,zero,7f4 <strlen+0x88>
     80c:	003fe306 	br	79c <strlen+0x30>

00000810 <___vfprintf_internal_r>:
     810:	f811883a 	mov	r8,ra
     814:	000e1ac0 	call	e1ac <_mcount>
     818:	403f883a 	mov	ra,r8
     81c:	deffbf04 	addi	sp,sp,-260
     820:	dfc04015 	stw	ra,256(sp)
     824:	df003f15 	stw	fp,252(sp)
     828:	ddc03e15 	stw	r23,248(sp)
     82c:	dd803d15 	stw	r22,244(sp)
     830:	dd403c15 	stw	r21,240(sp)
     834:	dd003b15 	stw	r20,236(sp)
     838:	dcc03a15 	stw	r19,232(sp)
     83c:	dc803915 	stw	r18,228(sp)
     840:	dc403815 	stw	r17,224(sp)
     844:	dc003715 	stw	r16,220(sp)
     848:	2027883a 	mov	r19,r4
     84c:	2825883a 	mov	r18,r5
     850:	302d883a 	mov	r22,r6
     854:	d9c00615 	stw	r7,24(sp)
     858:	00057d00 	call	57d0 <_localeconv_r>
     85c:	10800017 	ldw	r2,0(r2)
     860:	1009883a 	mov	r4,r2
     864:	d8800d15 	stw	r2,52(sp)
     868:	000076c0 	call	76c <strlen>
     86c:	d8800b15 	stw	r2,44(sp)
     870:	98000226 	beq	r19,zero,87c <___vfprintf_internal_r+0x6c>
     874:	98800e17 	ldw	r2,56(r19)
     878:	1001de26 	beq	r2,zero,ff4 <___vfprintf_internal_r+0x7e4>
     87c:	9080030b 	ldhu	r2,12(r18)
     880:	10c8000c 	andi	r3,r2,8192
     884:	1800061e 	bne	r3,zero,8a0 <___vfprintf_internal_r+0x90>
     888:	90c01917 	ldw	r3,100(r18)
     88c:	0137ffc4 	movi	r4,-8193
     890:	10880014 	ori	r2,r2,8192
     894:	1906703a 	and	r3,r3,r4
     898:	9080030d 	sth	r2,12(r18)
     89c:	90c01915 	stw	r3,100(r18)
     8a0:	10c0020c 	andi	r3,r2,8
     8a4:	1800fa26 	beq	r3,zero,c90 <___vfprintf_internal_r+0x480>
     8a8:	90c00417 	ldw	r3,16(r18)
     8ac:	1800f826 	beq	r3,zero,c90 <___vfprintf_internal_r+0x480>
     8b0:	1080068c 	andi	r2,r2,26
     8b4:	10800298 	cmpnei	r2,r2,10
     8b8:	1000fd26 	beq	r2,zero,cb0 <___vfprintf_internal_r+0x4a0>
     8bc:	d8802704 	addi	r2,sp,156
     8c0:	b02f883a 	mov	r23,r22
     8c4:	d8801a15 	stw	r2,104(sp)
     8c8:	d8001c15 	stw	zero,112(sp)
     8cc:	d8001b15 	stw	zero,108(sp)
     8d0:	d8000815 	stw	zero,32(sp)
     8d4:	d8000915 	stw	zero,36(sp)
     8d8:	d8000a15 	stw	zero,40(sp)
     8dc:	d8000c15 	stw	zero,48(sp)
     8e0:	d8001015 	stw	zero,64(sp)
     8e4:	d8000515 	stw	zero,20(sp)
     8e8:	102d883a 	mov	r22,r2
     8ec:	b8800007 	ldb	r2,0(r23)
     8f0:	1000d526 	beq	r2,zero,c48 <___vfprintf_internal_r+0x438>
     8f4:	b821883a 	mov	r16,r23
     8f8:	00000306 	br	908 <___vfprintf_internal_r+0xf8>
     8fc:	80800047 	ldb	r2,1(r16)
     900:	84000044 	addi	r16,r16,1
     904:	10012026 	beq	r2,zero,d88 <___vfprintf_internal_r+0x578>
     908:	10800958 	cmpnei	r2,r2,37
     90c:	103ffb1e 	bne	r2,zero,8fc <___vfprintf_internal_r+0xec>
     910:	85e3c83a 	sub	r17,r16,r23
     914:	85c11e1e 	bne	r16,r23,d90 <___vfprintf_internal_r+0x580>
     918:	80800003 	ldbu	r2,0(r16)
     91c:	10803fcc 	andi	r2,r2,255
     920:	1080201c 	xori	r2,r2,128
     924:	10bfe004 	addi	r2,r2,-128
     928:	1000c726 	beq	r2,zero,c48 <___vfprintf_internal_r+0x438>
     92c:	82c00047 	ldb	r11,1(r16)
     930:	85c00044 	addi	r23,r16,1
     934:	d8001345 	stb	zero,77(sp)
     938:	0009883a 	mov	r4,zero
     93c:	000b883a 	mov	r5,zero
     940:	023fffc4 	movi	r8,-1
     944:	0021883a 	mov	r16,zero
     948:	0019883a 	mov	r12,zero
     94c:	bdc00044 	addi	r23,r23,1
     950:	5839883a 	mov	fp,r11
     954:	e0bff804 	addi	r2,fp,-32
     958:	10c01668 	cmpgeui	r3,r2,89
     95c:	18006a1e 	bne	r3,zero,b08 <___vfprintf_internal_r+0x2f8>
     960:	100490ba 	slli	r2,r2,2
     964:	00c00034 	movhi	r3,0
     968:	10c7883a 	add	r3,r2,r3
     96c:	18825d17 	ldw	r2,2420(r3)
     970:	1000683a 	jmp	r2
     974:	000012b4 	movhi	zero,74
     978:	00000b08 	cmpgei	zero,zero,44
     97c:	00000b08 	cmpgei	zero,zero,44
     980:	000012a8 	cmpgeui	zero,zero,74
     984:	00000b08 	cmpgei	zero,zero,44
     988:	00000b08 	cmpgei	zero,zero,44
     98c:	00000b08 	cmpgei	zero,zero,44
     990:	00000b08 	cmpgei	zero,zero,44
     994:	00000b08 	cmpgei	zero,zero,44
     998:	00000b08 	cmpgei	zero,zero,44
     99c:	00001280 	call	128 <alt_irq_handler+0x2c>
     9a0:	00001270 	cmpltui	zero,zero,73
     9a4:	00000b08 	cmpgei	zero,zero,44
     9a8:	00001258 	cmpnei	zero,zero,73
     9ac:	00001214 	movui	zero,72
     9b0:	00000b08 	cmpgei	zero,zero,44
     9b4:	00001208 	cmpgei	zero,zero,72
     9b8:	00000ad8 	cmpnei	zero,zero,43
     9bc:	00000ad8 	cmpnei	zero,zero,43
     9c0:	00000ad8 	cmpnei	zero,zero,43
     9c4:	00000ad8 	cmpnei	zero,zero,43
     9c8:	00000ad8 	cmpnei	zero,zero,43
     9cc:	00000ad8 	cmpnei	zero,zero,43
     9d0:	00000ad8 	cmpnei	zero,zero,43
     9d4:	00000ad8 	cmpnei	zero,zero,43
     9d8:	00000ad8 	cmpnei	zero,zero,43
     9dc:	00000b08 	cmpgei	zero,zero,44
     9e0:	00000b08 	cmpgei	zero,zero,44
     9e4:	00000b08 	cmpgei	zero,zero,44
     9e8:	00000b08 	cmpgei	zero,zero,44
     9ec:	00000b08 	cmpgei	zero,zero,44
     9f0:	00000b08 	cmpgei	zero,zero,44
     9f4:	00000b08 	cmpgei	zero,zero,44
     9f8:	00000b08 	cmpgei	zero,zero,44
     9fc:	00000b08 	cmpgei	zero,zero,44
     a00:	00000b08 	cmpgei	zero,zero,44
     a04:	00001120 	cmpeqi	zero,zero,68
     a08:	00000dec 	andhi	zero,zero,55
     a0c:	00000b08 	cmpgei	zero,zero,44
     a10:	00000dec 	andhi	zero,zero,55
     a14:	00000b08 	cmpgei	zero,zero,44
     a18:	00000b08 	cmpgei	zero,zero,44
     a1c:	00000b08 	cmpgei	zero,zero,44
     a20:	00000b08 	cmpgei	zero,zero,44
     a24:	00001114 	movui	zero,68
     a28:	00000b08 	cmpgei	zero,zero,44
     a2c:	00000b08 	cmpgei	zero,zero,44
     a30:	00000d20 	cmpeqi	zero,zero,52
     a34:	00000b08 	cmpgei	zero,zero,44
     a38:	00000b08 	cmpgei	zero,zero,44
     a3c:	00000b08 	cmpgei	zero,zero,44
     a40:	00000b08 	cmpgei	zero,zero,44
     a44:	00000b08 	cmpgei	zero,zero,44
     a48:	00000cf8 	rdprs	zero,zero,51
     a4c:	00000b08 	cmpgei	zero,zero,44
     a50:	00000b08 	cmpgei	zero,zero,44
     a54:	000010cc 	andi	zero,zero,67
     a58:	00000b08 	cmpgei	zero,zero,44
     a5c:	00000b08 	cmpgei	zero,zero,44
     a60:	00000b08 	cmpgei	zero,zero,44
     a64:	00000b08 	cmpgei	zero,zero,44
     a68:	00000b08 	cmpgei	zero,zero,44
     a6c:	00000b08 	cmpgei	zero,zero,44
     a70:	00000b08 	cmpgei	zero,zero,44
     a74:	00000b08 	cmpgei	zero,zero,44
     a78:	00000b08 	cmpgei	zero,zero,44
     a7c:	00000b08 	cmpgei	zero,zero,44
     a80:	000010a4 	muli	zero,zero,66
     a84:	00001000 	call	100 <alt_irq_handler+0x4>
     a88:	00000dec 	andhi	zero,zero,55
     a8c:	00000dec 	andhi	zero,zero,55
     a90:	00000dec 	andhi	zero,zero,55
     a94:	00001098 	cmpnei	zero,zero,66
     a98:	00001000 	call	100 <alt_irq_handler+0x4>
     a9c:	00000b08 	cmpgei	zero,zero,44
     aa0:	00000b08 	cmpgei	zero,zero,44
     aa4:	00001408 	cmpgei	zero,zero,80
     aa8:	00000b08 	cmpgei	zero,zero,44
     aac:	000013cc 	andi	zero,zero,79
     ab0:	00000d24 	muli	zero,zero,52
     ab4:	0000138c 	andi	zero,zero,78
     ab8:	00001380 	call	138 <alt_irq_handler+0x3c>
     abc:	00000b08 	cmpgei	zero,zero,44
     ac0:	00001328 	cmpgeui	zero,zero,76
     ac4:	00000b08 	cmpgei	zero,zero,44
     ac8:	00000cfc 	xorhi	zero,zero,51
     acc:	00000b08 	cmpgei	zero,zero,44
     ad0:	00000b08 	cmpgei	zero,zero,44
     ad4:	000012e0 	cmpeqi	zero,zero,75
     ad8:	0021883a 	mov	r16,zero
     adc:	e0bff404 	addi	r2,fp,-48
     ae0:	bf000007 	ldb	fp,0(r23)
     ae4:	840002a4 	muli	r16,r16,10
     ae8:	bdc00044 	addi	r23,r23,1
     aec:	1421883a 	add	r16,r2,r16
     af0:	e0bff404 	addi	r2,fp,-48
     af4:	10c002b0 	cmpltui	r3,r2,10
     af8:	183ff91e 	bne	r3,zero,ae0 <___vfprintf_internal_r+0x2d0>
     afc:	e0bff804 	addi	r2,fp,-32
     b00:	10c01668 	cmpgeui	r3,r2,89
     b04:	183f9626 	beq	r3,zero,960 <___vfprintf_internal_r+0x150>
     b08:	21003fcc 	andi	r4,r4,255
     b0c:	2006851e 	bne	r4,zero,2524 <___vfprintf_internal_r+0x1d14>
     b10:	e0004d26 	beq	fp,zero,c48 <___vfprintf_internal_r+0x438>
     b14:	df001d05 	stb	fp,116(sp)
     b18:	d8001345 	stb	zero,77(sp)
     b1c:	05000044 	movi	r20,1
     b20:	05400044 	movi	r21,1
     b24:	dc401d04 	addi	r17,sp,116
     b28:	db000415 	stw	r12,16(sp)
     b2c:	0011883a 	mov	r8,zero
     b30:	d8000715 	stw	zero,28(sp)
     b34:	d8800417 	ldw	r2,16(sp)
     b38:	1380008c 	andi	r14,r2,2
     b3c:	70000126 	beq	r14,zero,b44 <___vfprintf_internal_r+0x334>
     b40:	a5000084 	addi	r20,r20,2
     b44:	d8800417 	ldw	r2,16(sp)
     b48:	d8c01c17 	ldw	r3,112(sp)
     b4c:	1340210c 	andi	r13,r2,132
     b50:	6800021e 	bne	r13,zero,b5c <___vfprintf_internal_r+0x34c>
     b54:	850fc83a 	sub	r7,r16,r20
     b58:	01c34316 	blt	zero,r7,1868 <___vfprintf_internal_r+0x1058>
     b5c:	d8801347 	ldb	r2,77(sp)
     b60:	10000c26 	beq	r2,zero,b94 <___vfprintf_internal_r+0x384>
     b64:	d8801b17 	ldw	r2,108(sp)
     b68:	d9001344 	addi	r4,sp,77
     b6c:	18c00044 	addi	r3,r3,1
     b70:	10800044 	addi	r2,r2,1
     b74:	b1000015 	stw	r4,0(r22)
     b78:	01000044 	movi	r4,1
     b7c:	d8801b15 	stw	r2,108(sp)
     b80:	b1000115 	stw	r4,4(r22)
     b84:	d8c01c15 	stw	r3,112(sp)
     b88:	10800208 	cmpgei	r2,r2,8
     b8c:	1003771e 	bne	r2,zero,196c <___vfprintf_internal_r+0x115c>
     b90:	b5800204 	addi	r22,r22,8
     b94:	70000c26 	beq	r14,zero,bc8 <___vfprintf_internal_r+0x3b8>
     b98:	d8801b17 	ldw	r2,108(sp)
     b9c:	d9001384 	addi	r4,sp,78
     ba0:	18c00084 	addi	r3,r3,2
     ba4:	10800044 	addi	r2,r2,1
     ba8:	b1000015 	stw	r4,0(r22)
     bac:	01000084 	movi	r4,2
     bb0:	d8801b15 	stw	r2,108(sp)
     bb4:	b1000115 	stw	r4,4(r22)
     bb8:	d8c01c15 	stw	r3,112(sp)
     bbc:	10800208 	cmpgei	r2,r2,8
     bc0:	1003781e 	bne	r2,zero,19a4 <___vfprintf_internal_r+0x1194>
     bc4:	b5800204 	addi	r22,r22,8
     bc8:	6b402018 	cmpnei	r13,r13,128
     bcc:	68025926 	beq	r13,zero,1534 <___vfprintf_internal_r+0xd24>
     bd0:	4551c83a 	sub	r8,r8,r21
     bd4:	02029116 	blt	zero,r8,161c <___vfprintf_internal_r+0xe0c>
     bd8:	d8800417 	ldw	r2,16(sp)
     bdc:	1080400c 	andi	r2,r2,256
     be0:	10020e1e 	bne	r2,zero,141c <___vfprintf_internal_r+0xc0c>
     be4:	d8801b17 	ldw	r2,108(sp)
     be8:	1d47883a 	add	r3,r3,r21
     bec:	b4400015 	stw	r17,0(r22)
     bf0:	10800044 	addi	r2,r2,1
     bf4:	b5400115 	stw	r21,4(r22)
     bf8:	d8801b15 	stw	r2,108(sp)
     bfc:	d8c01c15 	stw	r3,112(sp)
     c00:	10800208 	cmpgei	r2,r2,8
     c04:	10030e1e 	bne	r2,zero,1840 <___vfprintf_internal_r+0x1030>
     c08:	b5800204 	addi	r22,r22,8
     c0c:	d8800417 	ldw	r2,16(sp)
     c10:	1440010c 	andi	r17,r2,4
     c14:	88000226 	beq	r17,zero,c20 <___vfprintf_internal_r+0x410>
     c18:	8523c83a 	sub	r17,r16,r20
     c1c:	0440c616 	blt	zero,r17,f38 <___vfprintf_internal_r+0x728>
     c20:	8500010e 	bge	r16,r20,c28 <___vfprintf_internal_r+0x418>
     c24:	a021883a 	mov	r16,r20
     c28:	d8800517 	ldw	r2,20(sp)
     c2c:	1405883a 	add	r2,r2,r16
     c30:	d8800515 	stw	r2,20(sp)
     c34:	1802c01e 	bne	r3,zero,1738 <___vfprintf_internal_r+0xf28>
     c38:	b8800007 	ldb	r2,0(r23)
     c3c:	d8001b15 	stw	zero,108(sp)
     c40:	dd802704 	addi	r22,sp,156
     c44:	103f2b1e 	bne	r2,zero,8f4 <___vfprintf_internal_r+0xe4>
     c48:	d8801c17 	ldw	r2,112(sp)
     c4c:	1006371e 	bne	r2,zero,252c <___vfprintf_internal_r+0x1d1c>
     c50:	9080030b 	ldhu	r2,12(r18)
     c54:	1080100c 	andi	r2,r2,64
     c58:	1006cd1e 	bne	r2,zero,2790 <___vfprintf_internal_r+0x1f80>
     c5c:	d8800517 	ldw	r2,20(sp)
     c60:	dfc04017 	ldw	ra,256(sp)
     c64:	df003f17 	ldw	fp,252(sp)
     c68:	ddc03e17 	ldw	r23,248(sp)
     c6c:	dd803d17 	ldw	r22,244(sp)
     c70:	dd403c17 	ldw	r21,240(sp)
     c74:	dd003b17 	ldw	r20,236(sp)
     c78:	dcc03a17 	ldw	r19,232(sp)
     c7c:	dc803917 	ldw	r18,228(sp)
     c80:	dc403817 	ldw	r17,224(sp)
     c84:	dc003717 	ldw	r16,220(sp)
     c88:	dec04104 	addi	sp,sp,260
     c8c:	f800283a 	ret
     c90:	900b883a 	mov	r5,r18
     c94:	9809883a 	mov	r4,r19
     c98:	0002a040 	call	2a04 <__swsetup_r>
     c9c:	1006bc1e 	bne	r2,zero,2790 <___vfprintf_internal_r+0x1f80>
     ca0:	9080030b 	ldhu	r2,12(r18)
     ca4:	1080068c 	andi	r2,r2,26
     ca8:	10800298 	cmpnei	r2,r2,10
     cac:	103f031e 	bne	r2,zero,8bc <___vfprintf_internal_r+0xac>
     cb0:	9080038f 	ldh	r2,14(r18)
     cb4:	103f0116 	blt	r2,zero,8bc <___vfprintf_internal_r+0xac>
     cb8:	d9c00617 	ldw	r7,24(sp)
     cbc:	b00d883a 	mov	r6,r22
     cc0:	900b883a 	mov	r5,r18
     cc4:	9809883a 	mov	r4,r19
     cc8:	dfc04017 	ldw	ra,256(sp)
     ccc:	df003f17 	ldw	fp,252(sp)
     cd0:	ddc03e17 	ldw	r23,248(sp)
     cd4:	dd803d17 	ldw	r22,244(sp)
     cd8:	dd403c17 	ldw	r21,240(sp)
     cdc:	dd003b17 	ldw	r20,236(sp)
     ce0:	dcc03a17 	ldw	r19,232(sp)
     ce4:	dc803917 	ldw	r18,228(sp)
     ce8:	dc403817 	ldw	r17,224(sp)
     cec:	dc003717 	ldw	r16,220(sp)
     cf0:	dec04104 	addi	sp,sp,260
     cf4:	00029381 	jmpi	2938 <__sbprintf>
     cf8:	63000414 	ori	r12,r12,16
     cfc:	6080080c 	andi	r2,r12,32
     d00:	10008126 	beq	r2,zero,f08 <___vfprintf_internal_r+0x6f8>
     d04:	d8c00617 	ldw	r3,24(sp)
     d08:	00800044 	movi	r2,1
     d0c:	1d000017 	ldw	r20,0(r3)
     d10:	1d400117 	ldw	r21,4(r3)
     d14:	18c00204 	addi	r3,r3,8
     d18:	d8c00615 	stw	r3,24(sp)
     d1c:	00000906 	br	d44 <___vfprintf_internal_r+0x534>
     d20:	63000414 	ori	r12,r12,16
     d24:	6080080c 	andi	r2,r12,32
     d28:	10006b26 	beq	r2,zero,ed8 <___vfprintf_internal_r+0x6c8>
     d2c:	d8c00617 	ldw	r3,24(sp)
     d30:	0005883a 	mov	r2,zero
     d34:	1d000017 	ldw	r20,0(r3)
     d38:	1d400117 	ldw	r21,4(r3)
     d3c:	18c00204 	addi	r3,r3,8
     d40:	d8c00615 	stw	r3,24(sp)
     d44:	d8001345 	stb	zero,77(sp)
     d48:	40ffffe0 	cmpeqi	r3,r8,-1
     d4c:	001b883a 	mov	r13,zero
     d50:	18010e1e 	bne	r3,zero,118c <___vfprintf_internal_r+0x97c>
     d54:	047fdfc4 	movi	r17,-129
     d58:	6448703a 	and	r4,r12,r17
     d5c:	a546b03a 	or	r3,r20,r21
     d60:	d9000415 	stw	r4,16(sp)
     d64:	1802be1e 	bne	r3,zero,1860 <___vfprintf_internal_r+0x1050>
     d68:	40025d1e 	bne	r8,zero,16e0 <___vfprintf_internal_r+0xed0>
     d6c:	1003731e 	bne	r2,zero,1b3c <___vfprintf_internal_r+0x132c>
     d70:	6540004c 	andi	r21,r12,1
     d74:	a803ae26 	beq	r21,zero,1c30 <___vfprintf_internal_r+0x1420>
     d78:	00800c04 	movi	r2,48
     d7c:	d88026c5 	stb	r2,155(sp)
     d80:	dc4026c4 	addi	r17,sp,155
     d84:	0000ba06 	br	1070 <___vfprintf_internal_r+0x860>
     d88:	85e3c83a 	sub	r17,r16,r23
     d8c:	85ffae26 	beq	r16,r23,c48 <___vfprintf_internal_r+0x438>
     d90:	d8c01c17 	ldw	r3,112(sp)
     d94:	d8801b17 	ldw	r2,108(sp)
     d98:	b5c00015 	stw	r23,0(r22)
     d9c:	1c47883a 	add	r3,r3,r17
     da0:	10800044 	addi	r2,r2,1
     da4:	d8801b15 	stw	r2,108(sp)
     da8:	b4400115 	stw	r17,4(r22)
     dac:	d8c01c15 	stw	r3,112(sp)
     db0:	10800208 	cmpgei	r2,r2,8
     db4:	1000061e 	bne	r2,zero,dd0 <___vfprintf_internal_r+0x5c0>
     db8:	b5800204 	addi	r22,r22,8
     dbc:	d8c00517 	ldw	r3,20(sp)
     dc0:	80800003 	ldbu	r2,0(r16)
     dc4:	1c47883a 	add	r3,r3,r17
     dc8:	d8c00515 	stw	r3,20(sp)
     dcc:	003ed306 	br	91c <___vfprintf_internal_r+0x10c>
     dd0:	d9801a04 	addi	r6,sp,104
     dd4:	900b883a 	mov	r5,r18
     dd8:	9809883a 	mov	r4,r19
     ddc:	0007fdc0 	call	7fdc <__sprint_r>
     de0:	103f9b1e 	bne	r2,zero,c50 <___vfprintf_internal_r+0x440>
     de4:	dd802704 	addi	r22,sp,156
     de8:	003ff406 	br	dbc <___vfprintf_internal_r+0x5ac>
     dec:	21003fcc 	andi	r4,r4,255
     df0:	2006651e 	bne	r4,zero,2788 <___vfprintf_internal_r+0x1f78>
     df4:	d8c00617 	ldw	r3,24(sp)
     df8:	6080020c 	andi	r2,r12,8
     dfc:	19000204 	addi	r4,r3,8
     e00:	d9000e15 	stw	r4,56(sp)
     e04:	1003a51e 	bne	r2,zero,1c9c <___vfprintf_internal_r+0x148c>
     e08:	d8800617 	ldw	r2,24(sp)
     e0c:	10c00017 	ldw	r3,0(r2)
     e10:	10800117 	ldw	r2,4(r2)
     e14:	d8c00915 	stw	r3,36(sp)
     e18:	d8800a15 	stw	r2,40(sp)
     e1c:	dd400a17 	ldw	r21,40(sp)
     e20:	dd000917 	ldw	r20,36(sp)
     e24:	00a00034 	movhi	r2,32768
     e28:	10bfffc4 	addi	r2,r2,-1
     e2c:	a8a2703a 	and	r17,r21,r2
     e30:	01dffc34 	movhi	r7,32752
     e34:	01bfffc4 	movi	r6,-1
     e38:	39ffffc4 	addi	r7,r7,-1
     e3c:	a009883a 	mov	r4,r20
     e40:	880b883a 	mov	r5,r17
     e44:	da000615 	stw	r8,24(sp)
     e48:	db000415 	stw	r12,16(sp)
     e4c:	000d7480 	call	d748 <__unorddf2>
     e50:	db000417 	ldw	r12,16(sp)
     e54:	da000617 	ldw	r8,24(sp)
     e58:	1004621e 	bne	r2,zero,1fe4 <___vfprintf_internal_r+0x17d4>
     e5c:	01dffc34 	movhi	r7,32752
     e60:	01bfffc4 	movi	r6,-1
     e64:	39ffffc4 	addi	r7,r7,-1
     e68:	a009883a 	mov	r4,r20
     e6c:	880b883a 	mov	r5,r17
     e70:	000c7140 	call	c714 <__ledf2>
     e74:	db000417 	ldw	r12,16(sp)
     e78:	da000617 	ldw	r8,24(sp)
     e7c:	0084590e 	bge	zero,r2,1fe4 <___vfprintf_internal_r+0x17d4>
     e80:	000d883a 	mov	r6,zero
     e84:	000f883a 	mov	r7,zero
     e88:	a009883a 	mov	r4,r20
     e8c:	a80b883a 	mov	r5,r21
     e90:	000c7140 	call	c714 <__ledf2>
     e94:	db000417 	ldw	r12,16(sp)
     e98:	10058f16 	blt	r2,zero,24d8 <___vfprintf_internal_r+0x1cc8>
     e9c:	db401343 	ldbu	r13,77(sp)
     ea0:	e0801210 	cmplti	r2,fp,72
     ea4:	1005371e 	bne	r2,zero,2384 <___vfprintf_internal_r+0x1b74>
     ea8:	04400074 	movhi	r17,1
     eac:	8c401104 	addi	r17,r17,68
     eb0:	00bfdfc4 	movi	r2,-129
     eb4:	6084703a 	and	r2,r12,r2
     eb8:	d8800415 	stw	r2,16(sp)
     ebc:	d8800e17 	ldw	r2,56(sp)
     ec0:	050000c4 	movi	r20,3
     ec4:	054000c4 	movi	r21,3
     ec8:	d8800615 	stw	r2,24(sp)
     ecc:	0011883a 	mov	r8,zero
     ed0:	d8000715 	stw	zero,28(sp)
     ed4:	00006a06 	br	1080 <___vfprintf_internal_r+0x870>
     ed8:	d9000617 	ldw	r4,24(sp)
     edc:	6080040c 	andi	r2,r12,16
     ee0:	20c00104 	addi	r3,r4,4
     ee4:	1003681e 	bne	r2,zero,1c88 <___vfprintf_internal_r+0x1478>
     ee8:	6080100c 	andi	r2,r12,64
     eec:	10051f26 	beq	r2,zero,236c <___vfprintf_internal_r+0x1b5c>
     ef0:	d8800617 	ldw	r2,24(sp)
     ef4:	002b883a 	mov	r21,zero
     ef8:	d8c00615 	stw	r3,24(sp)
     efc:	1500000b 	ldhu	r20,0(r2)
     f00:	0005883a 	mov	r2,zero
     f04:	003f8f06 	br	d44 <___vfprintf_internal_r+0x534>
     f08:	d9000617 	ldw	r4,24(sp)
     f0c:	6080040c 	andi	r2,r12,16
     f10:	20c00104 	addi	r3,r4,4
     f14:	10034e1e 	bne	r2,zero,1c50 <___vfprintf_internal_r+0x1440>
     f18:	6080100c 	andi	r2,r12,64
     f1c:	10055726 	beq	r2,zero,247c <___vfprintf_internal_r+0x1c6c>
     f20:	d8800617 	ldw	r2,24(sp)
     f24:	002b883a 	mov	r21,zero
     f28:	d8c00615 	stw	r3,24(sp)
     f2c:	1500000b 	ldhu	r20,0(r2)
     f30:	00800044 	movi	r2,1
     f34:	003f8306 	br	d44 <___vfprintf_internal_r+0x534>
     f38:	03000074 	movhi	r12,1
     f3c:	89000450 	cmplti	r4,r17,17
     f40:	d8801b17 	ldw	r2,108(sp)
     f44:	63002504 	addi	r12,r12,148
     f48:	20001b1e 	bne	r4,zero,fb8 <___vfprintf_internal_r+0x7a8>
     f4c:	05400404 	movi	r21,16
     f50:	6039883a 	mov	fp,r12
     f54:	00000406 	br	f68 <___vfprintf_internal_r+0x758>
     f58:	8c7ffc04 	addi	r17,r17,-16
     f5c:	89000448 	cmpgei	r4,r17,17
     f60:	b5800204 	addi	r22,r22,8
     f64:	20001326 	beq	r4,zero,fb4 <___vfprintf_internal_r+0x7a4>
     f68:	10800044 	addi	r2,r2,1
     f6c:	18c00404 	addi	r3,r3,16
     f70:	b7000015 	stw	fp,0(r22)
     f74:	b5400115 	stw	r21,4(r22)
     f78:	d8c01c15 	stw	r3,112(sp)
     f7c:	d8801b15 	stw	r2,108(sp)
     f80:	11000208 	cmpgei	r4,r2,8
     f84:	203ff426 	beq	r4,zero,f58 <___vfprintf_internal_r+0x748>
     f88:	d9801a04 	addi	r6,sp,104
     f8c:	900b883a 	mov	r5,r18
     f90:	9809883a 	mov	r4,r19
     f94:	0007fdc0 	call	7fdc <__sprint_r>
     f98:	103f2d1e 	bne	r2,zero,c50 <___vfprintf_internal_r+0x440>
     f9c:	8c7ffc04 	addi	r17,r17,-16
     fa0:	89000448 	cmpgei	r4,r17,17
     fa4:	d8c01c17 	ldw	r3,112(sp)
     fa8:	d8801b17 	ldw	r2,108(sp)
     fac:	dd802704 	addi	r22,sp,156
     fb0:	203fed1e 	bne	r4,zero,f68 <___vfprintf_internal_r+0x758>
     fb4:	e019883a 	mov	r12,fp
     fb8:	10800044 	addi	r2,r2,1
     fbc:	1c47883a 	add	r3,r3,r17
     fc0:	d8801b15 	stw	r2,108(sp)
     fc4:	b3000015 	stw	r12,0(r22)
     fc8:	b4400115 	stw	r17,4(r22)
     fcc:	d8c01c15 	stw	r3,112(sp)
     fd0:	10800210 	cmplti	r2,r2,8
     fd4:	103f121e 	bne	r2,zero,c20 <___vfprintf_internal_r+0x410>
     fd8:	d9801a04 	addi	r6,sp,104
     fdc:	900b883a 	mov	r5,r18
     fe0:	9809883a 	mov	r4,r19
     fe4:	0007fdc0 	call	7fdc <__sprint_r>
     fe8:	103f191e 	bne	r2,zero,c50 <___vfprintf_internal_r+0x440>
     fec:	d8c01c17 	ldw	r3,112(sp)
     ff0:	003f0b06 	br	c20 <___vfprintf_internal_r+0x410>
     ff4:	9809883a 	mov	r4,r19
     ff8:	0004cd40 	call	4cd4 <__sinit>
     ffc:	003e1f06 	br	87c <___vfprintf_internal_r+0x6c>
    1000:	21003fcc 	andi	r4,r4,255
    1004:	2005dc1e 	bne	r4,zero,2778 <___vfprintf_internal_r+0x1f68>
    1008:	6080080c 	andi	r2,r12,32
    100c:	10004926 	beq	r2,zero,1134 <___vfprintf_internal_r+0x924>
    1010:	d8c00617 	ldw	r3,24(sp)
    1014:	18800117 	ldw	r2,4(r3)
    1018:	1d000017 	ldw	r20,0(r3)
    101c:	18c00204 	addi	r3,r3,8
    1020:	d8c00615 	stw	r3,24(sp)
    1024:	102b883a 	mov	r21,r2
    1028:	10004e16 	blt	r2,zero,1164 <___vfprintf_internal_r+0x954>
    102c:	40bfffd8 	cmpnei	r2,r8,-1
    1030:	db401343 	ldbu	r13,77(sp)
    1034:	10000626 	beq	r2,zero,1050 <___vfprintf_internal_r+0x840>
    1038:	047fdfc4 	movi	r17,-129
    103c:	6446703a 	and	r3,r12,r17
    1040:	a544b03a 	or	r2,r20,r21
    1044:	d8c00415 	stw	r3,16(sp)
    1048:	1002bb26 	beq	r2,zero,1b38 <___vfprintf_internal_r+0x1328>
    104c:	db000417 	ldw	r12,16(sp)
    1050:	a8036e1e 	bne	r21,zero,1e0c <___vfprintf_internal_r+0x15fc>
    1054:	a08002a8 	cmpgeui	r2,r20,10
    1058:	10036c1e 	bne	r2,zero,1e0c <___vfprintf_internal_r+0x15fc>
    105c:	a5000c04 	addi	r20,r20,48
    1060:	dd0026c5 	stb	r20,155(sp)
    1064:	db000415 	stw	r12,16(sp)
    1068:	05400044 	movi	r21,1
    106c:	dc4026c4 	addi	r17,sp,155
    1070:	4029883a 	mov	r20,r8
    1074:	4540010e 	bge	r8,r21,107c <___vfprintf_internal_r+0x86c>
    1078:	a829883a 	mov	r20,r21
    107c:	d8000715 	stw	zero,28(sp)
    1080:	6b403fcc 	andi	r13,r13,255
    1084:	6b40201c 	xori	r13,r13,128
    1088:	6b7fe004 	addi	r13,r13,-128
    108c:	683ea926 	beq	r13,zero,b34 <___vfprintf_internal_r+0x324>
    1090:	a5000044 	addi	r20,r20,1
    1094:	003ea706 	br	b34 <___vfprintf_internal_r+0x324>
    1098:	bac00007 	ldb	r11,0(r23)
    109c:	63001014 	ori	r12,r12,64
    10a0:	003e2a06 	br	94c <___vfprintf_internal_r+0x13c>
    10a4:	d8c00617 	ldw	r3,24(sp)
    10a8:	d8001345 	stb	zero,77(sp)
    10ac:	05000044 	movi	r20,1
    10b0:	18800017 	ldw	r2,0(r3)
    10b4:	18c00104 	addi	r3,r3,4
    10b8:	d8c00615 	stw	r3,24(sp)
    10bc:	d8801d05 	stb	r2,116(sp)
    10c0:	05400044 	movi	r21,1
    10c4:	dc401d04 	addi	r17,sp,116
    10c8:	003e9706 	br	b28 <___vfprintf_internal_r+0x318>
    10cc:	21003fcc 	andi	r4,r4,255
    10d0:	2005a51e 	bne	r4,zero,2768 <___vfprintf_internal_r+0x1f58>
    10d4:	00800074 	movhi	r2,1
    10d8:	10801904 	addi	r2,r2,100
    10dc:	d8800c15 	stw	r2,48(sp)
    10e0:	6080080c 	andi	r2,r12,32
    10e4:	10008526 	beq	r2,zero,12fc <___vfprintf_internal_r+0xaec>
    10e8:	d8800617 	ldw	r2,24(sp)
    10ec:	15000017 	ldw	r20,0(r2)
    10f0:	15400117 	ldw	r21,4(r2)
    10f4:	10800204 	addi	r2,r2,8
    10f8:	d8800615 	stw	r2,24(sp)
    10fc:	6080004c 	andi	r2,r12,1
    1100:	10000226 	beq	r2,zero,110c <___vfprintf_internal_r+0x8fc>
    1104:	a544b03a 	or	r2,r20,r21
    1108:	1002cb1e 	bne	r2,zero,1c38 <___vfprintf_internal_r+0x1428>
    110c:	00800084 	movi	r2,2
    1110:	003f0c06 	br	d44 <___vfprintf_internal_r+0x534>
    1114:	bac00007 	ldb	r11,0(r23)
    1118:	63000214 	ori	r12,r12,8
    111c:	003e0b06 	br	94c <___vfprintf_internal_r+0x13c>
    1120:	21003fcc 	andi	r4,r4,255
    1124:	2005961e 	bne	r4,zero,2780 <___vfprintf_internal_r+0x1f70>
    1128:	63000414 	ori	r12,r12,16
    112c:	6080080c 	andi	r2,r12,32
    1130:	103fb71e 	bne	r2,zero,1010 <___vfprintf_internal_r+0x800>
    1134:	d9000617 	ldw	r4,24(sp)
    1138:	6080040c 	andi	r2,r12,16
    113c:	20c00104 	addi	r3,r4,4
    1140:	1002db1e 	bne	r2,zero,1cb0 <___vfprintf_internal_r+0x14a0>
    1144:	6080100c 	andi	r2,r12,64
    1148:	10048226 	beq	r2,zero,2354 <___vfprintf_internal_r+0x1b44>
    114c:	d8800617 	ldw	r2,24(sp)
    1150:	d8c00615 	stw	r3,24(sp)
    1154:	1500000f 	ldh	r20,0(r2)
    1158:	a02bd7fa 	srai	r21,r20,31
    115c:	a805883a 	mov	r2,r21
    1160:	103fb20e 	bge	r2,zero,102c <___vfprintf_internal_r+0x81c>
    1164:	a004c03a 	cmpne	r2,r20,zero
    1168:	056bc83a 	sub	r21,zero,r21
    116c:	a8abc83a 	sub	r21,r21,r2
    1170:	00800b44 	movi	r2,45
    1174:	d8801345 	stb	r2,77(sp)
    1178:	40ffffe0 	cmpeqi	r3,r8,-1
    117c:	0529c83a 	sub	r20,zero,r20
    1180:	03400b44 	movi	r13,45
    1184:	00800044 	movi	r2,1
    1188:	183ef226 	beq	r3,zero,d54 <___vfprintf_internal_r+0x544>
    118c:	10c00060 	cmpeqi	r3,r2,1
    1190:	183faf1e 	bne	r3,zero,1050 <___vfprintf_internal_r+0x840>
    1194:	108000a0 	cmpeqi	r2,r2,2
    1198:	1001561e 	bne	r2,zero,16f4 <___vfprintf_internal_r+0xee4>
    119c:	dc402704 	addi	r17,sp,156
    11a0:	a006d0fa 	srli	r3,r20,3
    11a4:	a808977a 	slli	r4,r21,29
    11a8:	a82ad0fa 	srli	r21,r21,3
    11ac:	a50001cc 	andi	r20,r20,7
    11b0:	a0800c04 	addi	r2,r20,48
    11b4:	20e8b03a 	or	r20,r4,r3
    11b8:	88bfffc5 	stb	r2,-1(r17)
    11bc:	a546b03a 	or	r3,r20,r21
    11c0:	880b883a 	mov	r5,r17
    11c4:	8c7fffc4 	addi	r17,r17,-1
    11c8:	183ff51e 	bne	r3,zero,11a0 <___vfprintf_internal_r+0x990>
    11cc:	60c0004c 	andi	r3,r12,1
    11d0:	18015526 	beq	r3,zero,1728 <___vfprintf_internal_r+0xf18>
    11d4:	10803fcc 	andi	r2,r2,255
    11d8:	1080201c 	xori	r2,r2,128
    11dc:	10bfe004 	addi	r2,r2,-128
    11e0:	10800c18 	cmpnei	r2,r2,48
    11e4:	10015026 	beq	r2,zero,1728 <___vfprintf_internal_r+0xf18>
    11e8:	00800c04 	movi	r2,48
    11ec:	297fff84 	addi	r5,r5,-2
    11f0:	88bfffc5 	stb	r2,-1(r17)
    11f4:	d8802704 	addi	r2,sp,156
    11f8:	116bc83a 	sub	r21,r2,r5
    11fc:	db000415 	stw	r12,16(sp)
    1200:	2823883a 	mov	r17,r5
    1204:	003f9a06 	br	1070 <___vfprintf_internal_r+0x860>
    1208:	bac00007 	ldb	r11,0(r23)
    120c:	63002014 	ori	r12,r12,128
    1210:	003dce06 	br	94c <___vfprintf_internal_r+0x13c>
    1214:	bf000007 	ldb	fp,0(r23)
    1218:	b8c00044 	addi	r3,r23,1
    121c:	e0800aa0 	cmpeqi	r2,fp,42
    1220:	1005af1e 	bne	r2,zero,28e0 <___vfprintf_internal_r+0x20d0>
    1224:	e0bff404 	addi	r2,fp,-48
    1228:	118002b0 	cmpltui	r6,r2,10
    122c:	182f883a 	mov	r23,r3
    1230:	0011883a 	mov	r8,zero
    1234:	303dc726 	beq	r6,zero,954 <___vfprintf_internal_r+0x144>
    1238:	bf000007 	ldb	fp,0(r23)
    123c:	420002a4 	muli	r8,r8,10
    1240:	bdc00044 	addi	r23,r23,1
    1244:	4091883a 	add	r8,r8,r2
    1248:	e0bff404 	addi	r2,fp,-48
    124c:	10c002b0 	cmpltui	r3,r2,10
    1250:	183ff91e 	bne	r3,zero,1238 <___vfprintf_internal_r+0xa28>
    1254:	003dbf06 	br	954 <___vfprintf_internal_r+0x144>
    1258:	bf000003 	ldbu	fp,0(r23)
    125c:	e2c03fcc 	andi	r11,fp,255
    1260:	5ac0201c 	xori	r11,r11,128
    1264:	63000114 	ori	r12,r12,4
    1268:	5affe004 	addi	r11,r11,-128
    126c:	003db706 	br	94c <___vfprintf_internal_r+0x13c>
    1270:	bac00007 	ldb	r11,0(r23)
    1274:	01000044 	movi	r4,1
    1278:	01400ac4 	movi	r5,43
    127c:	003db306 	br	94c <___vfprintf_internal_r+0x13c>
    1280:	d8800617 	ldw	r2,24(sp)
    1284:	bf000003 	ldbu	fp,0(r23)
    1288:	14000017 	ldw	r16,0(r2)
    128c:	10800104 	addi	r2,r2,4
    1290:	80028c16 	blt	r16,zero,1cc4 <___vfprintf_internal_r+0x14b4>
    1294:	d8800615 	stw	r2,24(sp)
    1298:	e2c03fcc 	andi	r11,fp,255
    129c:	5ac0201c 	xori	r11,r11,128
    12a0:	5affe004 	addi	r11,r11,-128
    12a4:	003da906 	br	94c <___vfprintf_internal_r+0x13c>
    12a8:	bac00007 	ldb	r11,0(r23)
    12ac:	63000054 	ori	r12,r12,1
    12b0:	003da606 	br	94c <___vfprintf_internal_r+0x13c>
    12b4:	28803fcc 	andi	r2,r5,255
    12b8:	1080201c 	xori	r2,r2,128
    12bc:	10bfe004 	addi	r2,r2,-128
    12c0:	bf000003 	ldbu	fp,0(r23)
    12c4:	103ff41e 	bne	r2,zero,1298 <___vfprintf_internal_r+0xa88>
    12c8:	e2c03fcc 	andi	r11,fp,255
    12cc:	5ac0201c 	xori	r11,r11,128
    12d0:	01000044 	movi	r4,1
    12d4:	01400804 	movi	r5,32
    12d8:	5affe004 	addi	r11,r11,-128
    12dc:	003d9b06 	br	94c <___vfprintf_internal_r+0x13c>
    12e0:	21003fcc 	andi	r4,r4,255
    12e4:	20051e1e 	bne	r4,zero,2760 <___vfprintf_internal_r+0x1f50>
    12e8:	00800074 	movhi	r2,1
    12ec:	10801404 	addi	r2,r2,80
    12f0:	d8800c15 	stw	r2,48(sp)
    12f4:	6080080c 	andi	r2,r12,32
    12f8:	103f7b1e 	bne	r2,zero,10e8 <___vfprintf_internal_r+0x8d8>
    12fc:	d9000617 	ldw	r4,24(sp)
    1300:	6080040c 	andi	r2,r12,16
    1304:	20c00104 	addi	r3,r4,4
    1308:	10025b1e 	bne	r2,zero,1c78 <___vfprintf_internal_r+0x1468>
    130c:	6080100c 	andi	r2,r12,64
    1310:	10046026 	beq	r2,zero,2494 <___vfprintf_internal_r+0x1c84>
    1314:	d8800617 	ldw	r2,24(sp)
    1318:	002b883a 	mov	r21,zero
    131c:	d8c00615 	stw	r3,24(sp)
    1320:	1500000b 	ldhu	r20,0(r2)
    1324:	003f7506 	br	10fc <___vfprintf_internal_r+0x8ec>
    1328:	d8800617 	ldw	r2,24(sp)
    132c:	d8001345 	stb	zero,77(sp)
    1330:	14400017 	ldw	r17,0(r2)
    1334:	10c00104 	addi	r3,r2,4
    1338:	88028e26 	beq	r17,zero,1d74 <___vfprintf_internal_r+0x1564>
    133c:	40bfffe0 	cmpeqi	r2,r8,-1
    1340:	1003c01e 	bne	r2,zero,2244 <___vfprintf_internal_r+0x1a34>
    1344:	400d883a 	mov	r6,r8
    1348:	000b883a 	mov	r5,zero
    134c:	8809883a 	mov	r4,r17
    1350:	d8c00715 	stw	r3,28(sp)
    1354:	db000615 	stw	r12,24(sp)
    1358:	da000415 	stw	r8,16(sp)
    135c:	000624c0 	call	624c <memchr>
    1360:	da000417 	ldw	r8,16(sp)
    1364:	db000617 	ldw	r12,24(sp)
    1368:	d8c00717 	ldw	r3,28(sp)
    136c:	1004ec26 	beq	r2,zero,2720 <___vfprintf_internal_r+0x1f10>
    1370:	146bc83a 	sub	r21,r2,r17
    1374:	a829883a 	mov	r20,r21
    1378:	d8c00615 	stw	r3,24(sp)
    137c:	003dea06 	br	b28 <___vfprintf_internal_r+0x318>
    1380:	bac00007 	ldb	r11,0(r23)
    1384:	63000814 	ori	r12,r12,32
    1388:	003d7006 	br	94c <___vfprintf_internal_r+0x13c>
    138c:	d8c00617 	ldw	r3,24(sp)
    1390:	00800c04 	movi	r2,48
    1394:	d8801385 	stb	r2,78(sp)
    1398:	00801e04 	movi	r2,120
    139c:	01000074 	movhi	r4,1
    13a0:	d88013c5 	stb	r2,79(sp)
    13a4:	18800104 	addi	r2,r3,4
    13a8:	d8800615 	stw	r2,24(sp)
    13ac:	20801404 	addi	r2,r4,80
    13b0:	d8800c15 	stw	r2,48(sp)
    13b4:	1d000017 	ldw	r20,0(r3)
    13b8:	002b883a 	mov	r21,zero
    13bc:	63000094 	ori	r12,r12,2
    13c0:	00800084 	movi	r2,2
    13c4:	07001e04 	movi	fp,120
    13c8:	003e5e06 	br	d44 <___vfprintf_internal_r+0x534>
    13cc:	21003fcc 	andi	r4,r4,255
    13d0:	2004e71e 	bne	r4,zero,2770 <___vfprintf_internal_r+0x1f60>
    13d4:	d9000617 	ldw	r4,24(sp)
    13d8:	6080080c 	andi	r2,r12,32
    13dc:	20c00017 	ldw	r3,0(r4)
    13e0:	21000104 	addi	r4,r4,4
    13e4:	d9000615 	stw	r4,24(sp)
    13e8:	10021e1e 	bne	r2,zero,1c64 <___vfprintf_internal_r+0x1454>
    13ec:	6080040c 	andi	r2,r12,16
    13f0:	1002ae1e 	bne	r2,zero,1eac <___vfprintf_internal_r+0x169c>
    13f4:	6300100c 	andi	r12,r12,64
    13f8:	6002ac26 	beq	r12,zero,1eac <___vfprintf_internal_r+0x169c>
    13fc:	d8800517 	ldw	r2,20(sp)
    1400:	1880000d 	sth	r2,0(r3)
    1404:	003d3906 	br	8ec <___vfprintf_internal_r+0xdc>
    1408:	bac00007 	ldb	r11,0(r23)
    140c:	58801b18 	cmpnei	r2,r11,108
    1410:	10024926 	beq	r2,zero,1d38 <___vfprintf_internal_r+0x1528>
    1414:	63000414 	ori	r12,r12,16
    1418:	003d4c06 	br	94c <___vfprintf_internal_r+0x13c>
    141c:	e2c01990 	cmplti	r11,fp,102
    1420:	5800cb1e 	bne	r11,zero,1750 <___vfprintf_internal_r+0xf40>
    1424:	d9000917 	ldw	r4,36(sp)
    1428:	d9400a17 	ldw	r5,40(sp)
    142c:	000d883a 	mov	r6,zero
    1430:	000f883a 	mov	r7,zero
    1434:	d8c00e15 	stw	r3,56(sp)
    1438:	000c5940 	call	c594 <__eqdf2>
    143c:	d8c00e17 	ldw	r3,56(sp)
    1440:	1001641e 	bne	r2,zero,19d4 <___vfprintf_internal_r+0x11c4>
    1444:	d8801b17 	ldw	r2,108(sp)
    1448:	01000074 	movhi	r4,1
    144c:	21002004 	addi	r4,r4,128
    1450:	10800044 	addi	r2,r2,1
    1454:	18c00044 	addi	r3,r3,1
    1458:	b1000015 	stw	r4,0(r22)
    145c:	01000044 	movi	r4,1
    1460:	d8801b15 	stw	r2,108(sp)
    1464:	b1000115 	stw	r4,4(r22)
    1468:	d8c01c15 	stw	r3,112(sp)
    146c:	10800208 	cmpgei	r2,r2,8
    1470:	1003621e 	bne	r2,zero,21fc <___vfprintf_internal_r+0x19ec>
    1474:	b5800204 	addi	r22,r22,8
    1478:	d8801417 	ldw	r2,80(sp)
    147c:	d9000817 	ldw	r4,32(sp)
    1480:	1101e70e 	bge	r2,r4,1c20 <___vfprintf_internal_r+0x1410>
    1484:	d8800d17 	ldw	r2,52(sp)
    1488:	d9000b17 	ldw	r4,44(sp)
    148c:	b0800015 	stw	r2,0(r22)
    1490:	d8801b17 	ldw	r2,108(sp)
    1494:	1907883a 	add	r3,r3,r4
    1498:	b1000115 	stw	r4,4(r22)
    149c:	10800044 	addi	r2,r2,1
    14a0:	d8801b15 	stw	r2,108(sp)
    14a4:	d8c01c15 	stw	r3,112(sp)
    14a8:	10800208 	cmpgei	r2,r2,8
    14ac:	1002291e 	bne	r2,zero,1d54 <___vfprintf_internal_r+0x1544>
    14b0:	b5800204 	addi	r22,r22,8
    14b4:	d8800817 	ldw	r2,32(sp)
    14b8:	157fffc4 	addi	r21,r2,-1
    14bc:	057dd30e 	bge	zero,r21,c0c <___vfprintf_internal_r+0x3fc>
    14c0:	01c00074 	movhi	r7,1
    14c4:	a9000450 	cmplti	r4,r21,17
    14c8:	d8801b17 	ldw	r2,108(sp)
    14cc:	39c02104 	addi	r7,r7,132
    14d0:	2003461e 	bne	r4,zero,21ec <___vfprintf_internal_r+0x19dc>
    14d4:	07000404 	movi	fp,16
    14d8:	3823883a 	mov	r17,r7
    14dc:	00000406 	br	14f0 <___vfprintf_internal_r+0xce0>
    14e0:	b5800204 	addi	r22,r22,8
    14e4:	ad7ffc04 	addi	r21,r21,-16
    14e8:	a9000448 	cmpgei	r4,r21,17
    14ec:	20033e26 	beq	r4,zero,21e8 <___vfprintf_internal_r+0x19d8>
    14f0:	10800044 	addi	r2,r2,1
    14f4:	18c00404 	addi	r3,r3,16
    14f8:	b4400015 	stw	r17,0(r22)
    14fc:	b7000115 	stw	fp,4(r22)
    1500:	d8c01c15 	stw	r3,112(sp)
    1504:	d8801b15 	stw	r2,108(sp)
    1508:	11000208 	cmpgei	r4,r2,8
    150c:	203ff426 	beq	r4,zero,14e0 <___vfprintf_internal_r+0xcd0>
    1510:	d9801a04 	addi	r6,sp,104
    1514:	900b883a 	mov	r5,r18
    1518:	9809883a 	mov	r4,r19
    151c:	0007fdc0 	call	7fdc <__sprint_r>
    1520:	103dcb1e 	bne	r2,zero,c50 <___vfprintf_internal_r+0x440>
    1524:	d8c01c17 	ldw	r3,112(sp)
    1528:	d8801b17 	ldw	r2,108(sp)
    152c:	dd802704 	addi	r22,sp,156
    1530:	003fec06 	br	14e4 <___vfprintf_internal_r+0xcd4>
    1534:	8519c83a 	sub	r12,r16,r20
    1538:	033da50e 	bge	zero,r12,bd0 <___vfprintf_internal_r+0x3c0>
    153c:	01c00074 	movhi	r7,1
    1540:	61000450 	cmplti	r4,r12,17
    1544:	d8801b17 	ldw	r2,108(sp)
    1548:	39c02104 	addi	r7,r7,132
    154c:	2000281e 	bne	r4,zero,15f0 <___vfprintf_internal_r+0xde0>
    1550:	dc400e15 	stw	r17,56(sp)
    1554:	dc000f15 	stw	r16,60(sp)
    1558:	b009883a 	mov	r4,r22
    155c:	03400404 	movi	r13,16
    1560:	a02d883a 	mov	r22,r20
    1564:	6021883a 	mov	r16,r12
    1568:	4029883a 	mov	r20,r8
    156c:	3823883a 	mov	r17,r7
    1570:	00000406 	br	1584 <___vfprintf_internal_r+0xd74>
    1574:	843ffc04 	addi	r16,r16,-16
    1578:	81400448 	cmpgei	r5,r16,17
    157c:	21000204 	addi	r4,r4,8
    1580:	28001426 	beq	r5,zero,15d4 <___vfprintf_internal_r+0xdc4>
    1584:	10800044 	addi	r2,r2,1
    1588:	18c00404 	addi	r3,r3,16
    158c:	24400015 	stw	r17,0(r4)
    1590:	23400115 	stw	r13,4(r4)
    1594:	d8c01c15 	stw	r3,112(sp)
    1598:	d8801b15 	stw	r2,108(sp)
    159c:	11400208 	cmpgei	r5,r2,8
    15a0:	283ff426 	beq	r5,zero,1574 <___vfprintf_internal_r+0xd64>
    15a4:	d9801a04 	addi	r6,sp,104
    15a8:	900b883a 	mov	r5,r18
    15ac:	9809883a 	mov	r4,r19
    15b0:	0007fdc0 	call	7fdc <__sprint_r>
    15b4:	103da61e 	bne	r2,zero,c50 <___vfprintf_internal_r+0x440>
    15b8:	843ffc04 	addi	r16,r16,-16
    15bc:	81400448 	cmpgei	r5,r16,17
    15c0:	d8c01c17 	ldw	r3,112(sp)
    15c4:	d8801b17 	ldw	r2,108(sp)
    15c8:	d9002704 	addi	r4,sp,156
    15cc:	03400404 	movi	r13,16
    15d0:	283fec1e 	bne	r5,zero,1584 <___vfprintf_internal_r+0xd74>
    15d4:	8019883a 	mov	r12,r16
    15d8:	880f883a 	mov	r7,r17
    15dc:	dc000f17 	ldw	r16,60(sp)
    15e0:	dc400e17 	ldw	r17,56(sp)
    15e4:	a011883a 	mov	r8,r20
    15e8:	b029883a 	mov	r20,r22
    15ec:	202d883a 	mov	r22,r4
    15f0:	10800044 	addi	r2,r2,1
    15f4:	1b07883a 	add	r3,r3,r12
    15f8:	d8801b15 	stw	r2,108(sp)
    15fc:	b1c00015 	stw	r7,0(r22)
    1600:	b3000115 	stw	r12,4(r22)
    1604:	d8c01c15 	stw	r3,112(sp)
    1608:	10800208 	cmpgei	r2,r2,8
    160c:	1003031e 	bne	r2,zero,221c <___vfprintf_internal_r+0x1a0c>
    1610:	4551c83a 	sub	r8,r8,r21
    1614:	b5800204 	addi	r22,r22,8
    1618:	023d6f0e 	bge	zero,r8,bd8 <___vfprintf_internal_r+0x3c8>
    161c:	01c00074 	movhi	r7,1
    1620:	41000450 	cmplti	r4,r8,17
    1624:	d8801b17 	ldw	r2,108(sp)
    1628:	39c02104 	addi	r7,r7,132
    162c:	2000221e 	bne	r4,zero,16b8 <___vfprintf_internal_r+0xea8>
    1630:	dc400e15 	stw	r17,56(sp)
    1634:	dc000f15 	stw	r16,60(sp)
    1638:	03000404 	movi	r12,16
    163c:	4021883a 	mov	r16,r8
    1640:	3823883a 	mov	r17,r7
    1644:	00000406 	br	1658 <___vfprintf_internal_r+0xe48>
    1648:	843ffc04 	addi	r16,r16,-16
    164c:	81000448 	cmpgei	r4,r16,17
    1650:	b5800204 	addi	r22,r22,8
    1654:	20001426 	beq	r4,zero,16a8 <___vfprintf_internal_r+0xe98>
    1658:	10800044 	addi	r2,r2,1
    165c:	18c00404 	addi	r3,r3,16
    1660:	b4400015 	stw	r17,0(r22)
    1664:	b3000115 	stw	r12,4(r22)
    1668:	d8c01c15 	stw	r3,112(sp)
    166c:	d8801b15 	stw	r2,108(sp)
    1670:	11000208 	cmpgei	r4,r2,8
    1674:	203ff426 	beq	r4,zero,1648 <___vfprintf_internal_r+0xe38>
    1678:	d9801a04 	addi	r6,sp,104
    167c:	900b883a 	mov	r5,r18
    1680:	9809883a 	mov	r4,r19
    1684:	0007fdc0 	call	7fdc <__sprint_r>
    1688:	103d711e 	bne	r2,zero,c50 <___vfprintf_internal_r+0x440>
    168c:	843ffc04 	addi	r16,r16,-16
    1690:	81000448 	cmpgei	r4,r16,17
    1694:	d8c01c17 	ldw	r3,112(sp)
    1698:	d8801b17 	ldw	r2,108(sp)
    169c:	dd802704 	addi	r22,sp,156
    16a0:	03000404 	movi	r12,16
    16a4:	203fec1e 	bne	r4,zero,1658 <___vfprintf_internal_r+0xe48>
    16a8:	8011883a 	mov	r8,r16
    16ac:	880f883a 	mov	r7,r17
    16b0:	dc000f17 	ldw	r16,60(sp)
    16b4:	dc400e17 	ldw	r17,56(sp)
    16b8:	10800044 	addi	r2,r2,1
    16bc:	1a07883a 	add	r3,r3,r8
    16c0:	d8801b15 	stw	r2,108(sp)
    16c4:	b1c00015 	stw	r7,0(r22)
    16c8:	b2000115 	stw	r8,4(r22)
    16cc:	d8c01c15 	stw	r3,112(sp)
    16d0:	10800208 	cmpgei	r2,r2,8
    16d4:	10014a1e 	bne	r2,zero,1c00 <___vfprintf_internal_r+0x13f0>
    16d8:	b5800204 	addi	r22,r22,8
    16dc:	003d3e06 	br	bd8 <___vfprintf_internal_r+0x3c8>
    16e0:	10c00060 	cmpeqi	r3,r2,1
    16e4:	1803bc1e 	bne	r3,zero,25d8 <___vfprintf_internal_r+0x1dc8>
    16e8:	108000a0 	cmpeqi	r2,r2,2
    16ec:	db000417 	ldw	r12,16(sp)
    16f0:	103eaa26 	beq	r2,zero,119c <___vfprintf_internal_r+0x98c>
    16f4:	d9000c17 	ldw	r4,48(sp)
    16f8:	dc402704 	addi	r17,sp,156
    16fc:	a08003cc 	andi	r2,r20,15
    1700:	a806973a 	slli	r3,r21,28
    1704:	a028d13a 	srli	r20,r20,4
    1708:	2085883a 	add	r2,r4,r2
    170c:	10800003 	ldbu	r2,0(r2)
    1710:	a82ad13a 	srli	r21,r21,4
    1714:	1d28b03a 	or	r20,r3,r20
    1718:	88bfffc5 	stb	r2,-1(r17)
    171c:	a544b03a 	or	r2,r20,r21
    1720:	8c7fffc4 	addi	r17,r17,-1
    1724:	103ff51e 	bne	r2,zero,16fc <___vfprintf_internal_r+0xeec>
    1728:	d8802704 	addi	r2,sp,156
    172c:	146bc83a 	sub	r21,r2,r17
    1730:	db000415 	stw	r12,16(sp)
    1734:	003e4e06 	br	1070 <___vfprintf_internal_r+0x860>
    1738:	d9801a04 	addi	r6,sp,104
    173c:	900b883a 	mov	r5,r18
    1740:	9809883a 	mov	r4,r19
    1744:	0007fdc0 	call	7fdc <__sprint_r>
    1748:	103d3b26 	beq	r2,zero,c38 <___vfprintf_internal_r+0x428>
    174c:	003d4006 	br	c50 <___vfprintf_internal_r+0x440>
    1750:	d8800817 	ldw	r2,32(sp)
    1754:	da001b17 	ldw	r8,108(sp)
    1758:	18c00044 	addi	r3,r3,1
    175c:	10800088 	cmpgei	r2,r2,2
    1760:	45400044 	addi	r21,r8,1
    1764:	b7000204 	addi	fp,r22,8
    1768:	1000f826 	beq	r2,zero,1b4c <___vfprintf_internal_r+0x133c>
    176c:	00800044 	movi	r2,1
    1770:	b0800115 	stw	r2,4(r22)
    1774:	b4400015 	stw	r17,0(r22)
    1778:	d8c01c15 	stw	r3,112(sp)
    177c:	dd401b15 	stw	r21,108(sp)
    1780:	a8800210 	cmplti	r2,r21,8
    1784:	1001cc26 	beq	r2,zero,1eb8 <___vfprintf_internal_r+0x16a8>
    1788:	d8800b17 	ldw	r2,44(sp)
    178c:	d9000d17 	ldw	r4,52(sp)
    1790:	ad400044 	addi	r21,r21,1
    1794:	1887883a 	add	r3,r3,r2
    1798:	e0800115 	stw	r2,4(fp)
    179c:	e1000015 	stw	r4,0(fp)
    17a0:	d8c01c15 	stw	r3,112(sp)
    17a4:	dd401b15 	stw	r21,108(sp)
    17a8:	a8800208 	cmpgei	r2,r21,8
    17ac:	1001cb1e 	bne	r2,zero,1edc <___vfprintf_internal_r+0x16cc>
    17b0:	e7000204 	addi	fp,fp,8
    17b4:	d9000917 	ldw	r4,36(sp)
    17b8:	d9400a17 	ldw	r5,40(sp)
    17bc:	aa000044 	addi	r8,r21,1
    17c0:	000d883a 	mov	r6,zero
    17c4:	000f883a 	mov	r7,zero
    17c8:	d8c00e15 	stw	r3,56(sp)
    17cc:	da000715 	stw	r8,28(sp)
    17d0:	000c5940 	call	c594 <__eqdf2>
    17d4:	d8c00817 	ldw	r3,32(sp)
    17d8:	da000717 	ldw	r8,28(sp)
    17dc:	e5800204 	addi	r22,fp,8
    17e0:	1affffc4 	addi	r11,r3,-1
    17e4:	d8c00e17 	ldw	r3,56(sp)
    17e8:	1000e526 	beq	r2,zero,1b80 <___vfprintf_internal_r+0x1370>
    17ec:	8a400044 	addi	r9,r17,1
    17f0:	1ac7883a 	add	r3,r3,r11
    17f4:	da001b15 	stw	r8,108(sp)
    17f8:	e2400015 	stw	r9,0(fp)
    17fc:	e2c00115 	stw	r11,4(fp)
    1800:	d8c01c15 	stw	r3,112(sp)
    1804:	42000208 	cmpgei	r8,r8,8
    1808:	40013e1e 	bne	r8,zero,1d04 <___vfprintf_internal_r+0x14f4>
    180c:	e0800404 	addi	r2,fp,16
    1810:	aa000084 	addi	r8,r21,2
    1814:	b039883a 	mov	fp,r22
    1818:	102d883a 	mov	r22,r2
    181c:	d9001017 	ldw	r4,64(sp)
    1820:	d8801644 	addi	r2,sp,89
    1824:	da001b15 	stw	r8,108(sp)
    1828:	20c7883a 	add	r3,r4,r3
    182c:	e0800015 	stw	r2,0(fp)
    1830:	e1000115 	stw	r4,4(fp)
    1834:	d8c01c15 	stw	r3,112(sp)
    1838:	42000210 	cmplti	r8,r8,8
    183c:	403cf31e 	bne	r8,zero,c0c <___vfprintf_internal_r+0x3fc>
    1840:	d9801a04 	addi	r6,sp,104
    1844:	900b883a 	mov	r5,r18
    1848:	9809883a 	mov	r4,r19
    184c:	0007fdc0 	call	7fdc <__sprint_r>
    1850:	103cff1e 	bne	r2,zero,c50 <___vfprintf_internal_r+0x440>
    1854:	d8c01c17 	ldw	r3,112(sp)
    1858:	dd802704 	addi	r22,sp,156
    185c:	003ceb06 	br	c0c <___vfprintf_internal_r+0x3fc>
    1860:	db000417 	ldw	r12,16(sp)
    1864:	003e4906 	br	118c <___vfprintf_internal_r+0x97c>
    1868:	03000074 	movhi	r12,1
    186c:	39000450 	cmplti	r4,r7,17
    1870:	d8801b17 	ldw	r2,108(sp)
    1874:	63002504 	addi	r12,r12,148
    1878:	2000321e 	bne	r4,zero,1944 <___vfprintf_internal_r+0x1134>
    187c:	dc401115 	stw	r17,68(sp)
    1880:	b009883a 	mov	r4,r22
    1884:	9023883a 	mov	r17,r18
    1888:	a82d883a 	mov	r22,r21
    188c:	ddc01215 	stw	r23,72(sp)
    1890:	03c00404 	movi	r15,16
    1894:	a02f883a 	mov	r23,r20
    1898:	db800e15 	stw	r14,56(sp)
    189c:	8029883a 	mov	r20,r16
    18a0:	db400f15 	stw	r13,60(sp)
    18a4:	402b883a 	mov	r21,r8
    18a8:	3821883a 	mov	r16,r7
    18ac:	6025883a 	mov	r18,r12
    18b0:	00000406 	br	18c4 <___vfprintf_internal_r+0x10b4>
    18b4:	843ffc04 	addi	r16,r16,-16
    18b8:	81800448 	cmpgei	r6,r16,17
    18bc:	21000204 	addi	r4,r4,8
    18c0:	30001426 	beq	r6,zero,1914 <___vfprintf_internal_r+0x1104>
    18c4:	10800044 	addi	r2,r2,1
    18c8:	18c00404 	addi	r3,r3,16
    18cc:	24800015 	stw	r18,0(r4)
    18d0:	23c00115 	stw	r15,4(r4)
    18d4:	d8c01c15 	stw	r3,112(sp)
    18d8:	d8801b15 	stw	r2,108(sp)
    18dc:	11800208 	cmpgei	r6,r2,8
    18e0:	303ff426 	beq	r6,zero,18b4 <___vfprintf_internal_r+0x10a4>
    18e4:	d9801a04 	addi	r6,sp,104
    18e8:	880b883a 	mov	r5,r17
    18ec:	9809883a 	mov	r4,r19
    18f0:	0007fdc0 	call	7fdc <__sprint_r>
    18f4:	1001b91e 	bne	r2,zero,1fdc <___vfprintf_internal_r+0x17cc>
    18f8:	843ffc04 	addi	r16,r16,-16
    18fc:	81800448 	cmpgei	r6,r16,17
    1900:	d8c01c17 	ldw	r3,112(sp)
    1904:	d8801b17 	ldw	r2,108(sp)
    1908:	d9002704 	addi	r4,sp,156
    190c:	03c00404 	movi	r15,16
    1910:	303fec1e 	bne	r6,zero,18c4 <___vfprintf_internal_r+0x10b4>
    1914:	800f883a 	mov	r7,r16
    1918:	9019883a 	mov	r12,r18
    191c:	a021883a 	mov	r16,r20
    1920:	8825883a 	mov	r18,r17
    1924:	b829883a 	mov	r20,r23
    1928:	db800e17 	ldw	r14,56(sp)
    192c:	db400f17 	ldw	r13,60(sp)
    1930:	ddc01217 	ldw	r23,72(sp)
    1934:	dc401117 	ldw	r17,68(sp)
    1938:	a811883a 	mov	r8,r21
    193c:	b02b883a 	mov	r21,r22
    1940:	202d883a 	mov	r22,r4
    1944:	10800044 	addi	r2,r2,1
    1948:	19c7883a 	add	r3,r3,r7
    194c:	d8801b15 	stw	r2,108(sp)
    1950:	b3000015 	stw	r12,0(r22)
    1954:	b1c00115 	stw	r7,4(r22)
    1958:	d8c01c15 	stw	r3,112(sp)
    195c:	10800208 	cmpgei	r2,r2,8
    1960:	1001671e 	bne	r2,zero,1f00 <___vfprintf_internal_r+0x16f0>
    1964:	b5800204 	addi	r22,r22,8
    1968:	003c7c06 	br	b5c <___vfprintf_internal_r+0x34c>
    196c:	d9801a04 	addi	r6,sp,104
    1970:	900b883a 	mov	r5,r18
    1974:	9809883a 	mov	r4,r19
    1978:	da001115 	stw	r8,68(sp)
    197c:	db400f15 	stw	r13,60(sp)
    1980:	db800e15 	stw	r14,56(sp)
    1984:	0007fdc0 	call	7fdc <__sprint_r>
    1988:	103cb11e 	bne	r2,zero,c50 <___vfprintf_internal_r+0x440>
    198c:	d8c01c17 	ldw	r3,112(sp)
    1990:	da001117 	ldw	r8,68(sp)
    1994:	db400f17 	ldw	r13,60(sp)
    1998:	db800e17 	ldw	r14,56(sp)
    199c:	dd802704 	addi	r22,sp,156
    19a0:	003c7c06 	br	b94 <___vfprintf_internal_r+0x384>
    19a4:	d9801a04 	addi	r6,sp,104
    19a8:	900b883a 	mov	r5,r18
    19ac:	9809883a 	mov	r4,r19
    19b0:	da000f15 	stw	r8,60(sp)
    19b4:	db400e15 	stw	r13,56(sp)
    19b8:	0007fdc0 	call	7fdc <__sprint_r>
    19bc:	103ca41e 	bne	r2,zero,c50 <___vfprintf_internal_r+0x440>
    19c0:	d8c01c17 	ldw	r3,112(sp)
    19c4:	da000f17 	ldw	r8,60(sp)
    19c8:	db400e17 	ldw	r13,56(sp)
    19cc:	dd802704 	addi	r22,sp,156
    19d0:	003c7d06 	br	bc8 <___vfprintf_internal_r+0x3b8>
    19d4:	d9401417 	ldw	r5,80(sp)
    19d8:	0141570e 	bge	zero,r5,1f38 <___vfprintf_internal_r+0x1728>
    19dc:	d8800717 	ldw	r2,28(sp)
    19e0:	d9000817 	ldw	r4,32(sp)
    19e4:	102b883a 	mov	r21,r2
    19e8:	2080b916 	blt	r4,r2,1cd0 <___vfprintf_internal_r+0x14c0>
    19ec:	05400a0e 	bge	zero,r21,1a18 <___vfprintf_internal_r+0x1208>
    19f0:	d8801b17 	ldw	r2,108(sp)
    19f4:	1d47883a 	add	r3,r3,r21
    19f8:	b4400015 	stw	r17,0(r22)
    19fc:	10800044 	addi	r2,r2,1
    1a00:	d8801b15 	stw	r2,108(sp)
    1a04:	b5400115 	stw	r21,4(r22)
    1a08:	d8c01c15 	stw	r3,112(sp)
    1a0c:	10800208 	cmpgei	r2,r2,8
    1a10:	10032d1e 	bne	r2,zero,26c8 <___vfprintf_internal_r+0x1eb8>
    1a14:	b5800204 	addi	r22,r22,8
    1a18:	a800c516 	blt	r21,zero,1d30 <___vfprintf_internal_r+0x1520>
    1a1c:	d8800717 	ldw	r2,28(sp)
    1a20:	156bc83a 	sub	r21,r2,r21
    1a24:	0540db16 	blt	zero,r21,1d94 <___vfprintf_internal_r+0x1584>
    1a28:	dd401417 	ldw	r21,80(sp)
    1a2c:	d8800817 	ldw	r2,32(sp)
    1a30:	a880aa0e 	bge	r21,r2,1cdc <___vfprintf_internal_r+0x14cc>
    1a34:	d8800d17 	ldw	r2,52(sp)
    1a38:	d9000b17 	ldw	r4,44(sp)
    1a3c:	b0800015 	stw	r2,0(r22)
    1a40:	d8801b17 	ldw	r2,108(sp)
    1a44:	1907883a 	add	r3,r3,r4
    1a48:	b1000115 	stw	r4,4(r22)
    1a4c:	10800044 	addi	r2,r2,1
    1a50:	d8801b15 	stw	r2,108(sp)
    1a54:	d8c01c15 	stw	r3,112(sp)
    1a58:	10800208 	cmpgei	r2,r2,8
    1a5c:	1003111e 	bne	r2,zero,26a4 <___vfprintf_internal_r+0x1e94>
    1a60:	b5800204 	addi	r22,r22,8
    1a64:	d9000817 	ldw	r4,32(sp)
    1a68:	d9400717 	ldw	r5,28(sp)
    1a6c:	2545c83a 	sub	r2,r4,r21
    1a70:	2149c83a 	sub	r4,r4,r5
    1a74:	102b883a 	mov	r21,r2
    1a78:	2080010e 	bge	r4,r2,1a80 <___vfprintf_internal_r+0x1270>
    1a7c:	202b883a 	mov	r21,r4
    1a80:	05400c0e 	bge	zero,r21,1ab4 <___vfprintf_internal_r+0x12a4>
    1a84:	d9000717 	ldw	r4,28(sp)
    1a88:	1d47883a 	add	r3,r3,r21
    1a8c:	b5400115 	stw	r21,4(r22)
    1a90:	8913883a 	add	r9,r17,r4
    1a94:	d9001b17 	ldw	r4,108(sp)
    1a98:	b2400015 	stw	r9,0(r22)
    1a9c:	d8c01c15 	stw	r3,112(sp)
    1aa0:	21000044 	addi	r4,r4,1
    1aa4:	d9001b15 	stw	r4,108(sp)
    1aa8:	21000208 	cmpgei	r4,r4,8
    1aac:	2003111e 	bne	r4,zero,26f4 <___vfprintf_internal_r+0x1ee4>
    1ab0:	b5800204 	addi	r22,r22,8
    1ab4:	a800010e 	bge	r21,zero,1abc <___vfprintf_internal_r+0x12ac>
    1ab8:	002b883a 	mov	r21,zero
    1abc:	156bc83a 	sub	r21,r2,r21
    1ac0:	057c520e 	bge	zero,r21,c0c <___vfprintf_internal_r+0x3fc>
    1ac4:	01c00074 	movhi	r7,1
    1ac8:	a9000450 	cmplti	r4,r21,17
    1acc:	d8801b17 	ldw	r2,108(sp)
    1ad0:	39c02104 	addi	r7,r7,132
    1ad4:	2001c51e 	bne	r4,zero,21ec <___vfprintf_internal_r+0x19dc>
    1ad8:	07000404 	movi	fp,16
    1adc:	3823883a 	mov	r17,r7
    1ae0:	00000406 	br	1af4 <___vfprintf_internal_r+0x12e4>
    1ae4:	b5800204 	addi	r22,r22,8
    1ae8:	ad7ffc04 	addi	r21,r21,-16
    1aec:	a9000448 	cmpgei	r4,r21,17
    1af0:	2001bd26 	beq	r4,zero,21e8 <___vfprintf_internal_r+0x19d8>
    1af4:	10800044 	addi	r2,r2,1
    1af8:	18c00404 	addi	r3,r3,16
    1afc:	b4400015 	stw	r17,0(r22)
    1b00:	b7000115 	stw	fp,4(r22)
    1b04:	d8c01c15 	stw	r3,112(sp)
    1b08:	d8801b15 	stw	r2,108(sp)
    1b0c:	11000208 	cmpgei	r4,r2,8
    1b10:	203ff426 	beq	r4,zero,1ae4 <___vfprintf_internal_r+0x12d4>
    1b14:	d9801a04 	addi	r6,sp,104
    1b18:	900b883a 	mov	r5,r18
    1b1c:	9809883a 	mov	r4,r19
    1b20:	0007fdc0 	call	7fdc <__sprint_r>
    1b24:	103c4a1e 	bne	r2,zero,c50 <___vfprintf_internal_r+0x440>
    1b28:	d8c01c17 	ldw	r3,112(sp)
    1b2c:	d8801b17 	ldw	r2,108(sp)
    1b30:	dd802704 	addi	r22,sp,156
    1b34:	003fec06 	br	1ae8 <___vfprintf_internal_r+0x12d8>
    1b38:	4002a71e 	bne	r8,zero,25d8 <___vfprintf_internal_r+0x1dc8>
    1b3c:	0011883a 	mov	r8,zero
    1b40:	002b883a 	mov	r21,zero
    1b44:	dc402704 	addi	r17,sp,156
    1b48:	003d4906 	br	1070 <___vfprintf_internal_r+0x860>
    1b4c:	d8800417 	ldw	r2,16(sp)
    1b50:	1080004c 	andi	r2,r2,1
    1b54:	103f051e 	bne	r2,zero,176c <___vfprintf_internal_r+0xf5c>
    1b58:	00800044 	movi	r2,1
    1b5c:	dd401b15 	stw	r21,108(sp)
    1b60:	b4400015 	stw	r17,0(r22)
    1b64:	b0800115 	stw	r2,4(r22)
    1b68:	d8c01c15 	stw	r3,112(sp)
    1b6c:	ad400208 	cmpgei	r21,r21,8
    1b70:	a800641e 	bne	r21,zero,1d04 <___vfprintf_internal_r+0x14f4>
    1b74:	42000084 	addi	r8,r8,2
    1b78:	b5800404 	addi	r22,r22,16
    1b7c:	003f2706 	br	181c <___vfprintf_internal_r+0x100c>
    1b80:	02ff260e 	bge	zero,r11,181c <___vfprintf_internal_r+0x100c>
    1b84:	58800450 	cmplti	r2,r11,17
    1b88:	01c00074 	movhi	r7,1
    1b8c:	10034c1e 	bne	r2,zero,28c0 <___vfprintf_internal_r+0x20b0>
    1b90:	39c02104 	addi	r7,r7,132
    1b94:	dc000715 	stw	r16,28(sp)
    1b98:	05800404 	movi	r22,16
    1b9c:	5823883a 	mov	r17,r11
    1ba0:	3821883a 	mov	r16,r7
    1ba4:	402b883a 	mov	r21,r8
    1ba8:	00000506 	br	1bc0 <___vfprintf_internal_r+0x13b0>
    1bac:	e7000204 	addi	fp,fp,8
    1bb0:	8c7ffc04 	addi	r17,r17,-16
    1bb4:	88800448 	cmpgei	r2,r17,17
    1bb8:	1001d626 	beq	r2,zero,2314 <___vfprintf_internal_r+0x1b04>
    1bbc:	ad400044 	addi	r21,r21,1
    1bc0:	18c00404 	addi	r3,r3,16
    1bc4:	e4000015 	stw	r16,0(fp)
    1bc8:	e5800115 	stw	r22,4(fp)
    1bcc:	d8c01c15 	stw	r3,112(sp)
    1bd0:	dd401b15 	stw	r21,108(sp)
    1bd4:	a8800208 	cmpgei	r2,r21,8
    1bd8:	103ff426 	beq	r2,zero,1bac <___vfprintf_internal_r+0x139c>
    1bdc:	d9801a04 	addi	r6,sp,104
    1be0:	900b883a 	mov	r5,r18
    1be4:	9809883a 	mov	r4,r19
    1be8:	0007fdc0 	call	7fdc <__sprint_r>
    1bec:	103c181e 	bne	r2,zero,c50 <___vfprintf_internal_r+0x440>
    1bf0:	dd401b17 	ldw	r21,108(sp)
    1bf4:	d8c01c17 	ldw	r3,112(sp)
    1bf8:	df002704 	addi	fp,sp,156
    1bfc:	003fec06 	br	1bb0 <___vfprintf_internal_r+0x13a0>
    1c00:	d9801a04 	addi	r6,sp,104
    1c04:	900b883a 	mov	r5,r18
    1c08:	9809883a 	mov	r4,r19
    1c0c:	0007fdc0 	call	7fdc <__sprint_r>
    1c10:	103c0f1e 	bne	r2,zero,c50 <___vfprintf_internal_r+0x440>
    1c14:	d8c01c17 	ldw	r3,112(sp)
    1c18:	dd802704 	addi	r22,sp,156
    1c1c:	003bee06 	br	bd8 <___vfprintf_internal_r+0x3c8>
    1c20:	d8800417 	ldw	r2,16(sp)
    1c24:	1080004c 	andi	r2,r2,1
    1c28:	103bf826 	beq	r2,zero,c0c <___vfprintf_internal_r+0x3fc>
    1c2c:	003e1506 	br	1484 <___vfprintf_internal_r+0xc74>
    1c30:	dc402704 	addi	r17,sp,156
    1c34:	003d0e06 	br	1070 <___vfprintf_internal_r+0x860>
    1c38:	00800c04 	movi	r2,48
    1c3c:	d8801385 	stb	r2,78(sp)
    1c40:	df0013c5 	stb	fp,79(sp)
    1c44:	63000094 	ori	r12,r12,2
    1c48:	00800084 	movi	r2,2
    1c4c:	003c3d06 	br	d44 <___vfprintf_internal_r+0x534>
    1c50:	25000017 	ldw	r20,0(r4)
    1c54:	002b883a 	mov	r21,zero
    1c58:	d8c00615 	stw	r3,24(sp)
    1c5c:	00800044 	movi	r2,1
    1c60:	003c3806 	br	d44 <___vfprintf_internal_r+0x534>
    1c64:	d9000517 	ldw	r4,20(sp)
    1c68:	2005d7fa 	srai	r2,r4,31
    1c6c:	19000015 	stw	r4,0(r3)
    1c70:	18800115 	stw	r2,4(r3)
    1c74:	003b1d06 	br	8ec <___vfprintf_internal_r+0xdc>
    1c78:	25000017 	ldw	r20,0(r4)
    1c7c:	002b883a 	mov	r21,zero
    1c80:	d8c00615 	stw	r3,24(sp)
    1c84:	003d1d06 	br	10fc <___vfprintf_internal_r+0x8ec>
    1c88:	25000017 	ldw	r20,0(r4)
    1c8c:	002b883a 	mov	r21,zero
    1c90:	d8c00615 	stw	r3,24(sp)
    1c94:	0005883a 	mov	r2,zero
    1c98:	003c2a06 	br	d44 <___vfprintf_internal_r+0x534>
    1c9c:	18800017 	ldw	r2,0(r3)
    1ca0:	d8800915 	stw	r2,36(sp)
    1ca4:	18800117 	ldw	r2,4(r3)
    1ca8:	d8800a15 	stw	r2,40(sp)
    1cac:	003c5b06 	br	e1c <___vfprintf_internal_r+0x60c>
    1cb0:	25000017 	ldw	r20,0(r4)
    1cb4:	d8c00615 	stw	r3,24(sp)
    1cb8:	a02bd7fa 	srai	r21,r20,31
    1cbc:	a805883a 	mov	r2,r21
    1cc0:	003cd906 	br	1028 <___vfprintf_internal_r+0x818>
    1cc4:	0421c83a 	sub	r16,zero,r16
    1cc8:	d8800615 	stw	r2,24(sp)
    1ccc:	003d6306 	br	125c <___vfprintf_internal_r+0xa4c>
    1cd0:	202b883a 	mov	r21,r4
    1cd4:	057f4616 	blt	zero,r21,19f0 <___vfprintf_internal_r+0x11e0>
    1cd8:	003f4f06 	br	1a18 <___vfprintf_internal_r+0x1208>
    1cdc:	d8800417 	ldw	r2,16(sp)
    1ce0:	1080004c 	andi	r2,r2,1
    1ce4:	103f531e 	bne	r2,zero,1a34 <___vfprintf_internal_r+0x1224>
    1ce8:	d9000817 	ldw	r4,32(sp)
    1cec:	d9400717 	ldw	r5,28(sp)
    1cf0:	2545c83a 	sub	r2,r4,r21
    1cf4:	216bc83a 	sub	r21,r4,r5
    1cf8:	157f6e0e 	bge	r2,r21,1ab4 <___vfprintf_internal_r+0x12a4>
    1cfc:	102b883a 	mov	r21,r2
    1d00:	003f6c06 	br	1ab4 <___vfprintf_internal_r+0x12a4>
    1d04:	d9801a04 	addi	r6,sp,104
    1d08:	900b883a 	mov	r5,r18
    1d0c:	9809883a 	mov	r4,r19
    1d10:	0007fdc0 	call	7fdc <__sprint_r>
    1d14:	103bce1e 	bne	r2,zero,c50 <___vfprintf_internal_r+0x440>
    1d18:	da001b17 	ldw	r8,108(sp)
    1d1c:	d8c01c17 	ldw	r3,112(sp)
    1d20:	dd802904 	addi	r22,sp,164
    1d24:	42000044 	addi	r8,r8,1
    1d28:	df002704 	addi	fp,sp,156
    1d2c:	003ebb06 	br	181c <___vfprintf_internal_r+0x100c>
    1d30:	002b883a 	mov	r21,zero
    1d34:	003f3906 	br	1a1c <___vfprintf_internal_r+0x120c>
    1d38:	bf000043 	ldbu	fp,1(r23)
    1d3c:	63000814 	ori	r12,r12,32
    1d40:	bdc00044 	addi	r23,r23,1
    1d44:	e2c03fcc 	andi	r11,fp,255
    1d48:	5ac0201c 	xori	r11,r11,128
    1d4c:	5affe004 	addi	r11,r11,-128
    1d50:	003afe06 	br	94c <___vfprintf_internal_r+0x13c>
    1d54:	d9801a04 	addi	r6,sp,104
    1d58:	900b883a 	mov	r5,r18
    1d5c:	9809883a 	mov	r4,r19
    1d60:	0007fdc0 	call	7fdc <__sprint_r>
    1d64:	103bba1e 	bne	r2,zero,c50 <___vfprintf_internal_r+0x440>
    1d68:	d8c01c17 	ldw	r3,112(sp)
    1d6c:	dd802704 	addi	r22,sp,156
    1d70:	003dd006 	br	14b4 <___vfprintf_internal_r+0xca4>
    1d74:	408001f0 	cmpltui	r2,r8,7
    1d78:	402b883a 	mov	r21,r8
    1d7c:	1001e726 	beq	r2,zero,251c <___vfprintf_internal_r+0x1d0c>
    1d80:	04400074 	movhi	r17,1
    1d84:	a829883a 	mov	r20,r21
    1d88:	d8c00615 	stw	r3,24(sp)
    1d8c:	8c401e04 	addi	r17,r17,120
    1d90:	003b6506 	br	b28 <___vfprintf_internal_r+0x318>
    1d94:	01c00074 	movhi	r7,1
    1d98:	a9000450 	cmplti	r4,r21,17
    1d9c:	d8801b17 	ldw	r2,108(sp)
    1da0:	39c02104 	addi	r7,r7,132
    1da4:	2001c21e 	bne	r4,zero,24b0 <___vfprintf_internal_r+0x1ca0>
    1da8:	dc000e15 	stw	r16,56(sp)
    1dac:	07000404 	movi	fp,16
    1db0:	3821883a 	mov	r16,r7
    1db4:	00000406 	br	1dc8 <___vfprintf_internal_r+0x15b8>
    1db8:	b5800204 	addi	r22,r22,8
    1dbc:	ad7ffc04 	addi	r21,r21,-16
    1dc0:	a9000448 	cmpgei	r4,r21,17
    1dc4:	2001b826 	beq	r4,zero,24a8 <___vfprintf_internal_r+0x1c98>
    1dc8:	10800044 	addi	r2,r2,1
    1dcc:	18c00404 	addi	r3,r3,16
    1dd0:	b4000015 	stw	r16,0(r22)
    1dd4:	b7000115 	stw	fp,4(r22)
    1dd8:	d8c01c15 	stw	r3,112(sp)
    1ddc:	d8801b15 	stw	r2,108(sp)
    1de0:	11000208 	cmpgei	r4,r2,8
    1de4:	203ff426 	beq	r4,zero,1db8 <___vfprintf_internal_r+0x15a8>
    1de8:	d9801a04 	addi	r6,sp,104
    1dec:	900b883a 	mov	r5,r18
    1df0:	9809883a 	mov	r4,r19
    1df4:	0007fdc0 	call	7fdc <__sprint_r>
    1df8:	103b951e 	bne	r2,zero,c50 <___vfprintf_internal_r+0x440>
    1dfc:	d8c01c17 	ldw	r3,112(sp)
    1e00:	d8801b17 	ldw	r2,108(sp)
    1e04:	dd802704 	addi	r22,sp,156
    1e08:	003fec06 	br	1dbc <___vfprintf_internal_r+0x15ac>
    1e0c:	dc402704 	addi	r17,sp,156
    1e10:	a805883a 	mov	r2,r21
    1e14:	dc000715 	stw	r16,28(sp)
    1e18:	902b883a 	mov	r21,r18
    1e1c:	8821883a 	mov	r16,r17
    1e20:	db000415 	stw	r12,16(sp)
    1e24:	a023883a 	mov	r17,r20
    1e28:	da000e15 	stw	r8,56(sp)
    1e2c:	9829883a 	mov	r20,r19
    1e30:	1025883a 	mov	r18,r2
    1e34:	6827883a 	mov	r19,r13
    1e38:	8809883a 	mov	r4,r17
    1e3c:	900b883a 	mov	r5,r18
    1e40:	01800284 	movi	r6,10
    1e44:	000f883a 	mov	r7,zero
    1e48:	000ad0c0 	call	ad0c <__umoddi3>
    1e4c:	10800c04 	addi	r2,r2,48
    1e50:	8809883a 	mov	r4,r17
    1e54:	900b883a 	mov	r5,r18
    1e58:	01800284 	movi	r6,10
    1e5c:	000f883a 	mov	r7,zero
    1e60:	80bfffc5 	stb	r2,-1(r16)
    1e64:	000a7700 	call	a770 <__udivdi3>
    1e68:	900d883a 	mov	r6,r18
    1e6c:	880f883a 	mov	r7,r17
    1e70:	843fffc4 	addi	r16,r16,-1
    1e74:	1023883a 	mov	r17,r2
    1e78:	1825883a 	mov	r18,r3
    1e7c:	303fee1e 	bne	r6,zero,1e38 <___vfprintf_internal_r+0x1628>
    1e80:	39c002a8 	cmpgeui	r7,r7,10
    1e84:	383fec1e 	bne	r7,zero,1e38 <___vfprintf_internal_r+0x1628>
    1e88:	8023883a 	mov	r17,r16
    1e8c:	d8802704 	addi	r2,sp,156
    1e90:	981b883a 	mov	r13,r19
    1e94:	a825883a 	mov	r18,r21
    1e98:	dc000717 	ldw	r16,28(sp)
    1e9c:	da000e17 	ldw	r8,56(sp)
    1ea0:	a027883a 	mov	r19,r20
    1ea4:	146bc83a 	sub	r21,r2,r17
    1ea8:	003c7106 	br	1070 <___vfprintf_internal_r+0x860>
    1eac:	d8800517 	ldw	r2,20(sp)
    1eb0:	18800015 	stw	r2,0(r3)
    1eb4:	003a8d06 	br	8ec <___vfprintf_internal_r+0xdc>
    1eb8:	d9801a04 	addi	r6,sp,104
    1ebc:	900b883a 	mov	r5,r18
    1ec0:	9809883a 	mov	r4,r19
    1ec4:	0007fdc0 	call	7fdc <__sprint_r>
    1ec8:	103b611e 	bne	r2,zero,c50 <___vfprintf_internal_r+0x440>
    1ecc:	d8c01c17 	ldw	r3,112(sp)
    1ed0:	dd401b17 	ldw	r21,108(sp)
    1ed4:	df002704 	addi	fp,sp,156
    1ed8:	003e2b06 	br	1788 <___vfprintf_internal_r+0xf78>
    1edc:	d9801a04 	addi	r6,sp,104
    1ee0:	900b883a 	mov	r5,r18
    1ee4:	9809883a 	mov	r4,r19
    1ee8:	0007fdc0 	call	7fdc <__sprint_r>
    1eec:	103b581e 	bne	r2,zero,c50 <___vfprintf_internal_r+0x440>
    1ef0:	d8c01c17 	ldw	r3,112(sp)
    1ef4:	dd401b17 	ldw	r21,108(sp)
    1ef8:	df002704 	addi	fp,sp,156
    1efc:	003e2d06 	br	17b4 <___vfprintf_internal_r+0xfa4>
    1f00:	d9801a04 	addi	r6,sp,104
    1f04:	900b883a 	mov	r5,r18
    1f08:	9809883a 	mov	r4,r19
    1f0c:	da001115 	stw	r8,68(sp)
    1f10:	db400f15 	stw	r13,60(sp)
    1f14:	db800e15 	stw	r14,56(sp)
    1f18:	0007fdc0 	call	7fdc <__sprint_r>
    1f1c:	103b4c1e 	bne	r2,zero,c50 <___vfprintf_internal_r+0x440>
    1f20:	d8c01c17 	ldw	r3,112(sp)
    1f24:	da001117 	ldw	r8,68(sp)
    1f28:	db400f17 	ldw	r13,60(sp)
    1f2c:	db800e17 	ldw	r14,56(sp)
    1f30:	dd802704 	addi	r22,sp,156
    1f34:	003b0906 	br	b5c <___vfprintf_internal_r+0x34c>
    1f38:	d8801b17 	ldw	r2,108(sp)
    1f3c:	01000074 	movhi	r4,1
    1f40:	21002004 	addi	r4,r4,128
    1f44:	10800044 	addi	r2,r2,1
    1f48:	18c00044 	addi	r3,r3,1
    1f4c:	b1000015 	stw	r4,0(r22)
    1f50:	01000044 	movi	r4,1
    1f54:	d8801b15 	stw	r2,108(sp)
    1f58:	b1000115 	stw	r4,4(r22)
    1f5c:	d8c01c15 	stw	r3,112(sp)
    1f60:	10800208 	cmpgei	r2,r2,8
    1f64:	1001641e 	bne	r2,zero,24f8 <___vfprintf_internal_r+0x1ce8>
    1f68:	b5800204 	addi	r22,r22,8
    1f6c:	2800bd1e 	bne	r5,zero,2264 <___vfprintf_internal_r+0x1a54>
    1f70:	d8800417 	ldw	r2,16(sp)
    1f74:	d9000817 	ldw	r4,32(sp)
    1f78:	1080004c 	andi	r2,r2,1
    1f7c:	1104b03a 	or	r2,r2,r4
    1f80:	103b2226 	beq	r2,zero,c0c <___vfprintf_internal_r+0x3fc>
    1f84:	d8800d17 	ldw	r2,52(sp)
    1f88:	d9000b17 	ldw	r4,44(sp)
    1f8c:	b0800015 	stw	r2,0(r22)
    1f90:	d8801b17 	ldw	r2,108(sp)
    1f94:	20c7883a 	add	r3,r4,r3
    1f98:	b1000115 	stw	r4,4(r22)
    1f9c:	10800044 	addi	r2,r2,1
    1fa0:	d8c01c15 	stw	r3,112(sp)
    1fa4:	d8801b15 	stw	r2,108(sp)
    1fa8:	11000208 	cmpgei	r4,r2,8
    1fac:	2001771e 	bne	r4,zero,258c <___vfprintf_internal_r+0x1d7c>
    1fb0:	b5800204 	addi	r22,r22,8
    1fb4:	d9000817 	ldw	r4,32(sp)
    1fb8:	10800044 	addi	r2,r2,1
    1fbc:	d8801b15 	stw	r2,108(sp)
    1fc0:	20c7883a 	add	r3,r4,r3
    1fc4:	b4400015 	stw	r17,0(r22)
    1fc8:	b1000115 	stw	r4,4(r22)
    1fcc:	d8c01c15 	stw	r3,112(sp)
    1fd0:	10800208 	cmpgei	r2,r2,8
    1fd4:	103b0c26 	beq	r2,zero,c08 <___vfprintf_internal_r+0x3f8>
    1fd8:	003e1906 	br	1840 <___vfprintf_internal_r+0x1030>
    1fdc:	8825883a 	mov	r18,r17
    1fe0:	003b1b06 	br	c50 <___vfprintf_internal_r+0x440>
    1fe4:	d9000917 	ldw	r4,36(sp)
    1fe8:	d9400a17 	ldw	r5,40(sp)
    1fec:	da000615 	stw	r8,24(sp)
    1ff0:	200d883a 	mov	r6,r4
    1ff4:	280f883a 	mov	r7,r5
    1ff8:	db000415 	stw	r12,16(sp)
    1ffc:	000d7480 	call	d748 <__unorddf2>
    2000:	db000417 	ldw	r12,16(sp)
    2004:	da000617 	ldw	r8,24(sp)
    2008:	1002061e 	bne	r2,zero,2824 <___vfprintf_internal_r+0x2014>
    200c:	057ff7c4 	movi	r21,-33
    2010:	40bfffe0 	cmpeqi	r2,r8,-1
    2014:	e56a703a 	and	r21,fp,r21
    2018:	1001b41e 	bne	r2,zero,26ec <___vfprintf_internal_r+0x1edc>
    201c:	a88011d8 	cmpnei	r2,r21,71
    2020:	10015726 	beq	r2,zero,2580 <___vfprintf_internal_r+0x1d70>
    2024:	60804014 	ori	r2,r12,256
    2028:	d8800415 	stw	r2,16(sp)
    202c:	d8800a17 	ldw	r2,40(sp)
    2030:	10012d16 	blt	r2,zero,24e8 <___vfprintf_internal_r+0x1cd8>
    2034:	dd000a17 	ldw	r20,40(sp)
    2038:	d8000605 	stb	zero,24(sp)
    203c:	e08019a0 	cmpeqi	r2,fp,102
    2040:	d8800f15 	stw	r2,60(sp)
    2044:	1000d21e 	bne	r2,zero,2390 <___vfprintf_internal_r+0x1b80>
    2048:	e08011a0 	cmpeqi	r2,fp,70
    204c:	1000d01e 	bne	r2,zero,2390 <___vfprintf_internal_r+0x1b80>
    2050:	a8801158 	cmpnei	r2,r21,69
    2054:	10016226 	beq	r2,zero,25e0 <___vfprintf_internal_r+0x1dd0>
    2058:	d8801804 	addi	r2,sp,96
    205c:	d8800315 	stw	r2,12(sp)
    2060:	d9400917 	ldw	r5,36(sp)
    2064:	d8801504 	addi	r2,sp,84
    2068:	d8800215 	stw	r2,8(sp)
    206c:	d8801404 	addi	r2,sp,80
    2070:	da000015 	stw	r8,0(sp)
    2074:	9809883a 	mov	r4,r19
    2078:	d8800115 	stw	r2,4(sp)
    207c:	01c00084 	movi	r7,2
    2080:	a00d883a 	mov	r6,r20
    2084:	db000815 	stw	r12,32(sp)
    2088:	da000715 	stw	r8,28(sp)
    208c:	0002ea80 	call	2ea8 <_dtoa_r>
    2090:	da000717 	ldw	r8,28(sp)
    2094:	e10019d8 	cmpnei	r4,fp,103
    2098:	db000817 	ldw	r12,32(sp)
    209c:	1023883a 	mov	r17,r2
    20a0:	4007883a 	mov	r3,r8
    20a4:	2001621e 	bne	r4,zero,2630 <___vfprintf_internal_r+0x1e20>
    20a8:	6080004c 	andi	r2,r12,1
    20ac:	1001621e 	bne	r2,zero,2638 <___vfprintf_internal_r+0x1e28>
    20b0:	d8801417 	ldw	r2,80(sp)
    20b4:	ad4011e0 	cmpeqi	r21,r21,71
    20b8:	d8800715 	stw	r2,28(sp)
    20bc:	d8801817 	ldw	r2,96(sp)
    20c0:	1445c83a 	sub	r2,r2,r17
    20c4:	d8800815 	stw	r2,32(sp)
    20c8:	a8000526 	beq	r21,zero,20e0 <___vfprintf_internal_r+0x18d0>
    20cc:	d8c00717 	ldw	r3,28(sp)
    20d0:	18bfff50 	cmplti	r2,r3,-3
    20d4:	1000011e 	bne	r2,zero,20dc <___vfprintf_internal_r+0x18cc>
    20d8:	40c1670e 	bge	r8,r3,2678 <___vfprintf_internal_r+0x1e68>
    20dc:	e73fff84 	addi	fp,fp,-2
    20e0:	d8800717 	ldw	r2,28(sp)
    20e4:	df001645 	stb	fp,89(sp)
    20e8:	157fffc4 	addi	r21,r2,-1
    20ec:	dd401415 	stw	r21,80(sp)
    20f0:	a801d416 	blt	r21,zero,2844 <___vfprintf_internal_r+0x2034>
    20f4:	00800ac4 	movi	r2,43
    20f8:	d8801685 	stb	r2,90(sp)
    20fc:	a8800290 	cmplti	r2,r21,10
    2100:	1001c11e 	bne	r2,zero,2808 <___vfprintf_internal_r+0x1ff8>
    2104:	d98019c4 	addi	r6,sp,103
    2108:	9029883a 	mov	r20,r18
    210c:	dc400715 	stw	r17,28(sp)
    2110:	8025883a 	mov	r18,r16
    2114:	db000f15 	stw	r12,60(sp)
    2118:	3021883a 	mov	r16,r6
    211c:	a809883a 	mov	r4,r21
    2120:	01400284 	movi	r5,10
    2124:	000b2d80 	call	b2d8 <__modsi3>
    2128:	10800c04 	addi	r2,r2,48
    212c:	a809883a 	mov	r4,r21
    2130:	80bfffc5 	stb	r2,-1(r16)
    2134:	01400284 	movi	r5,10
    2138:	000b24c0 	call	b24c <__divsi3>
    213c:	a9001908 	cmpgei	r4,r21,100
    2140:	8023883a 	mov	r17,r16
    2144:	102b883a 	mov	r21,r2
    2148:	843fffc4 	addi	r16,r16,-1
    214c:	203ff31e 	bne	r4,zero,211c <___vfprintf_internal_r+0x190c>
    2150:	800d883a 	mov	r6,r16
    2154:	11000c04 	addi	r4,r2,48
    2158:	9021883a 	mov	r16,r18
    215c:	a025883a 	mov	r18,r20
    2160:	8829883a 	mov	r20,r17
    2164:	a0bfff84 	addi	r2,r20,-2
    2168:	313fffc5 	stb	r4,-1(r6)
    216c:	d8c019c4 	addi	r3,sp,103
    2170:	db000f17 	ldw	r12,60(sp)
    2174:	dc400717 	ldw	r17,28(sp)
    2178:	10c1d62e 	bgeu	r2,r3,28d4 <___vfprintf_internal_r+0x20c4>
    217c:	d8c016c4 	addi	r3,sp,91
    2180:	00000106 	br	2188 <___vfprintf_internal_r+0x1978>
    2184:	11000003 	ldbu	r4,0(r2)
    2188:	19000005 	stb	r4,0(r3)
    218c:	10800044 	addi	r2,r2,1
    2190:	d90019c4 	addi	r4,sp,103
    2194:	18c00044 	addi	r3,r3,1
    2198:	113ffa1e 	bne	r2,r4,2184 <___vfprintf_internal_r+0x1974>
    219c:	d8801a44 	addi	r2,sp,105
    21a0:	d8c016c4 	addi	r3,sp,91
    21a4:	1505c83a 	sub	r2,r2,r20
    21a8:	1885883a 	add	r2,r3,r2
    21ac:	d8c01644 	addi	r3,sp,89
    21b0:	10c5c83a 	sub	r2,r2,r3
    21b4:	d8801015 	stw	r2,64(sp)
    21b8:	d8c00817 	ldw	r3,32(sp)
    21bc:	d9001017 	ldw	r4,64(sp)
    21c0:	18800088 	cmpgei	r2,r3,2
    21c4:	192b883a 	add	r21,r3,r4
    21c8:	1001aa26 	beq	r2,zero,2874 <___vfprintf_internal_r+0x2064>
    21cc:	d8800b17 	ldw	r2,44(sp)
    21d0:	a8ab883a 	add	r21,r21,r2
    21d4:	a829883a 	mov	r20,r21
    21d8:	a800010e 	bge	r21,zero,21e0 <___vfprintf_internal_r+0x19d0>
    21dc:	0029883a 	mov	r20,zero
    21e0:	d8000715 	stw	zero,28(sp)
    21e4:	00009d06 	br	245c <___vfprintf_internal_r+0x1c4c>
    21e8:	880f883a 	mov	r7,r17
    21ec:	10800044 	addi	r2,r2,1
    21f0:	1d47883a 	add	r3,r3,r21
    21f4:	b1c00015 	stw	r7,0(r22)
    21f8:	003a7e06 	br	bf4 <___vfprintf_internal_r+0x3e4>
    21fc:	d9801a04 	addi	r6,sp,104
    2200:	900b883a 	mov	r5,r18
    2204:	9809883a 	mov	r4,r19
    2208:	0007fdc0 	call	7fdc <__sprint_r>
    220c:	103a901e 	bne	r2,zero,c50 <___vfprintf_internal_r+0x440>
    2210:	d8c01c17 	ldw	r3,112(sp)
    2214:	dd802704 	addi	r22,sp,156
    2218:	003c9706 	br	1478 <___vfprintf_internal_r+0xc68>
    221c:	d9801a04 	addi	r6,sp,104
    2220:	900b883a 	mov	r5,r18
    2224:	9809883a 	mov	r4,r19
    2228:	da000e15 	stw	r8,56(sp)
    222c:	0007fdc0 	call	7fdc <__sprint_r>
    2230:	103a871e 	bne	r2,zero,c50 <___vfprintf_internal_r+0x440>
    2234:	d8c01c17 	ldw	r3,112(sp)
    2238:	da000e17 	ldw	r8,56(sp)
    223c:	dd802704 	addi	r22,sp,156
    2240:	003a6306 	br	bd0 <___vfprintf_internal_r+0x3c0>
    2244:	8809883a 	mov	r4,r17
    2248:	db000415 	stw	r12,16(sp)
    224c:	d8c00615 	stw	r3,24(sp)
    2250:	000076c0 	call	76c <strlen>
    2254:	db000417 	ldw	r12,16(sp)
    2258:	102b883a 	mov	r21,r2
    225c:	1029883a 	mov	r20,r2
    2260:	003a3106 	br	b28 <___vfprintf_internal_r+0x318>
    2264:	d8800d17 	ldw	r2,52(sp)
    2268:	d9000b17 	ldw	r4,44(sp)
    226c:	b0800015 	stw	r2,0(r22)
    2270:	d8801b17 	ldw	r2,108(sp)
    2274:	20c7883a 	add	r3,r4,r3
    2278:	b1000115 	stw	r4,4(r22)
    227c:	10800044 	addi	r2,r2,1
    2280:	d8c01c15 	stw	r3,112(sp)
    2284:	d8801b15 	stw	r2,108(sp)
    2288:	11000208 	cmpgei	r4,r2,8
    228c:	2000bf1e 	bne	r4,zero,258c <___vfprintf_internal_r+0x1d7c>
    2290:	b5800204 	addi	r22,r22,8
    2294:	283f470e 	bge	r5,zero,1fb4 <___vfprintf_internal_r+0x17a4>
    2298:	01c00074 	movhi	r7,1
    229c:	293ffc08 	cmpgei	r4,r5,-16
    22a0:	39c02104 	addi	r7,r7,132
    22a4:	0179c83a 	sub	fp,zero,r5
    22a8:	20013f1e 	bne	r4,zero,27a8 <___vfprintf_internal_r+0x1f98>
    22ac:	dc000715 	stw	r16,28(sp)
    22b0:	05400404 	movi	r21,16
    22b4:	9021883a 	mov	r16,r18
    22b8:	3825883a 	mov	r18,r7
    22bc:	00000406 	br	22d0 <___vfprintf_internal_r+0x1ac0>
    22c0:	b5800204 	addi	r22,r22,8
    22c4:	e73ffc04 	addi	fp,fp,-16
    22c8:	e1800448 	cmpgei	r6,fp,17
    22cc:	30013326 	beq	r6,zero,279c <___vfprintf_internal_r+0x1f8c>
    22d0:	10800044 	addi	r2,r2,1
    22d4:	18c00404 	addi	r3,r3,16
    22d8:	b4800015 	stw	r18,0(r22)
    22dc:	b5400115 	stw	r21,4(r22)
    22e0:	d8c01c15 	stw	r3,112(sp)
    22e4:	d8801b15 	stw	r2,108(sp)
    22e8:	11800208 	cmpgei	r6,r2,8
    22ec:	303ff426 	beq	r6,zero,22c0 <___vfprintf_internal_r+0x1ab0>
    22f0:	d9801a04 	addi	r6,sp,104
    22f4:	800b883a 	mov	r5,r16
    22f8:	9809883a 	mov	r4,r19
    22fc:	0007fdc0 	call	7fdc <__sprint_r>
    2300:	1001721e 	bne	r2,zero,28cc <___vfprintf_internal_r+0x20bc>
    2304:	d8c01c17 	ldw	r3,112(sp)
    2308:	d8801b17 	ldw	r2,108(sp)
    230c:	dd802704 	addi	r22,sp,156
    2310:	003fec06 	br	22c4 <___vfprintf_internal_r+0x1ab4>
    2314:	800f883a 	mov	r7,r16
    2318:	dc000717 	ldw	r16,28(sp)
    231c:	8817883a 	mov	r11,r17
    2320:	aa000044 	addi	r8,r21,1
    2324:	e0800204 	addi	r2,fp,8
    2328:	1ac7883a 	add	r3,r3,r11
    232c:	e1c00015 	stw	r7,0(fp)
    2330:	e2c00115 	stw	r11,4(fp)
    2334:	d8c01c15 	stw	r3,112(sp)
    2338:	da001b15 	stw	r8,108(sp)
    233c:	41000208 	cmpgei	r4,r8,8
    2340:	203e701e 	bne	r4,zero,1d04 <___vfprintf_internal_r+0x14f4>
    2344:	42000044 	addi	r8,r8,1
    2348:	15800204 	addi	r22,r2,8
    234c:	1039883a 	mov	fp,r2
    2350:	003d3206 	br	181c <___vfprintf_internal_r+0x100c>
    2354:	d8800617 	ldw	r2,24(sp)
    2358:	d8c00615 	stw	r3,24(sp)
    235c:	15000017 	ldw	r20,0(r2)
    2360:	a02bd7fa 	srai	r21,r20,31
    2364:	a805883a 	mov	r2,r21
    2368:	003b2f06 	br	1028 <___vfprintf_internal_r+0x818>
    236c:	d8800617 	ldw	r2,24(sp)
    2370:	002b883a 	mov	r21,zero
    2374:	d8c00615 	stw	r3,24(sp)
    2378:	15000017 	ldw	r20,0(r2)
    237c:	0005883a 	mov	r2,zero
    2380:	003a7006 	br	d44 <___vfprintf_internal_r+0x534>
    2384:	04400074 	movhi	r17,1
    2388:	8c401004 	addi	r17,r17,64
    238c:	003ac806 	br	eb0 <___vfprintf_internal_r+0x6a0>
    2390:	d8801804 	addi	r2,sp,96
    2394:	d8800315 	stw	r2,12(sp)
    2398:	d9400917 	ldw	r5,36(sp)
    239c:	d8801504 	addi	r2,sp,84
    23a0:	d8800215 	stw	r2,8(sp)
    23a4:	d8801404 	addi	r2,sp,80
    23a8:	da000015 	stw	r8,0(sp)
    23ac:	d8800115 	stw	r2,4(sp)
    23b0:	01c000c4 	movi	r7,3
    23b4:	a00d883a 	mov	r6,r20
    23b8:	9809883a 	mov	r4,r19
    23bc:	db000815 	stw	r12,32(sp)
    23c0:	da000715 	stw	r8,28(sp)
    23c4:	0002ea80 	call	2ea8 <_dtoa_r>
    23c8:	da000717 	ldw	r8,28(sp)
    23cc:	1023883a 	mov	r17,r2
    23d0:	db000817 	ldw	r12,32(sp)
    23d4:	1207883a 	add	r3,r2,r8
    23d8:	88800007 	ldb	r2,0(r17)
    23dc:	10800c20 	cmpeqi	r2,r2,48
    23e0:	1000571e 	bne	r2,zero,2540 <___vfprintf_internal_r+0x1d30>
    23e4:	d8801417 	ldw	r2,80(sp)
    23e8:	1893883a 	add	r9,r3,r2
    23ec:	d9000917 	ldw	r4,36(sp)
    23f0:	000d883a 	mov	r6,zero
    23f4:	000f883a 	mov	r7,zero
    23f8:	a00b883a 	mov	r5,r20
    23fc:	da401115 	stw	r9,68(sp)
    2400:	da000815 	stw	r8,32(sp)
    2404:	db000715 	stw	r12,28(sp)
    2408:	000c5940 	call	c594 <__eqdf2>
    240c:	db000717 	ldw	r12,28(sp)
    2410:	da000817 	ldw	r8,32(sp)
    2414:	da401117 	ldw	r9,68(sp)
    2418:	1000891e 	bne	r2,zero,2640 <___vfprintf_internal_r+0x1e30>
    241c:	4805883a 	mov	r2,r9
    2420:	d8c01417 	ldw	r3,80(sp)
    2424:	1445c83a 	sub	r2,r2,r17
    2428:	ad4011d8 	cmpnei	r21,r21,71
    242c:	d8c00715 	stw	r3,28(sp)
    2430:	d8800815 	stw	r2,32(sp)
    2434:	a83f2526 	beq	r21,zero,20cc <___vfprintf_internal_r+0x18bc>
    2438:	d8800f17 	ldw	r2,60(sp)
    243c:	103f2826 	beq	r2,zero,20e0 <___vfprintf_internal_r+0x18d0>
    2440:	d8c00717 	ldw	r3,28(sp)
    2444:	6080004c 	andi	r2,r12,1
    2448:	1204b03a 	or	r2,r2,r8
    244c:	00c1140e 	bge	zero,r3,28a0 <___vfprintf_internal_r+0x2090>
    2450:	1001011e 	bne	r2,zero,2858 <___vfprintf_internal_r+0x2048>
    2454:	dd400717 	ldw	r21,28(sp)
    2458:	a829883a 	mov	r20,r21
    245c:	d8800607 	ldb	r2,24(sp)
    2460:	10008026 	beq	r2,zero,2664 <___vfprintf_internal_r+0x1e54>
    2464:	00800b44 	movi	r2,45
    2468:	d8801345 	stb	r2,77(sp)
    246c:	d8800e17 	ldw	r2,56(sp)
    2470:	0011883a 	mov	r8,zero
    2474:	d8800615 	stw	r2,24(sp)
    2478:	003b0506 	br	1090 <___vfprintf_internal_r+0x880>
    247c:	d8800617 	ldw	r2,24(sp)
    2480:	002b883a 	mov	r21,zero
    2484:	d8c00615 	stw	r3,24(sp)
    2488:	15000017 	ldw	r20,0(r2)
    248c:	00800044 	movi	r2,1
    2490:	003a2c06 	br	d44 <___vfprintf_internal_r+0x534>
    2494:	d8800617 	ldw	r2,24(sp)
    2498:	002b883a 	mov	r21,zero
    249c:	d8c00615 	stw	r3,24(sp)
    24a0:	15000017 	ldw	r20,0(r2)
    24a4:	003b1506 	br	10fc <___vfprintf_internal_r+0x8ec>
    24a8:	800f883a 	mov	r7,r16
    24ac:	dc000e17 	ldw	r16,56(sp)
    24b0:	10800044 	addi	r2,r2,1
    24b4:	1d47883a 	add	r3,r3,r21
    24b8:	d8801b15 	stw	r2,108(sp)
    24bc:	b1c00015 	stw	r7,0(r22)
    24c0:	b5400115 	stw	r21,4(r22)
    24c4:	d8c01c15 	stw	r3,112(sp)
    24c8:	10800208 	cmpgei	r2,r2,8
    24cc:	10003a1e 	bne	r2,zero,25b8 <___vfprintf_internal_r+0x1da8>
    24d0:	b5800204 	addi	r22,r22,8
    24d4:	003d5406 	br	1a28 <___vfprintf_internal_r+0x1218>
    24d8:	00800b44 	movi	r2,45
    24dc:	d8801345 	stb	r2,77(sp)
    24e0:	03400b44 	movi	r13,45
    24e4:	003a6e06 	br	ea0 <___vfprintf_internal_r+0x690>
    24e8:	1520003c 	xorhi	r20,r2,32768
    24ec:	00800b44 	movi	r2,45
    24f0:	d8800605 	stb	r2,24(sp)
    24f4:	003ed106 	br	203c <___vfprintf_internal_r+0x182c>
    24f8:	d9801a04 	addi	r6,sp,104
    24fc:	900b883a 	mov	r5,r18
    2500:	9809883a 	mov	r4,r19
    2504:	0007fdc0 	call	7fdc <__sprint_r>
    2508:	1039d11e 	bne	r2,zero,c50 <___vfprintf_internal_r+0x440>
    250c:	d9401417 	ldw	r5,80(sp)
    2510:	d8c01c17 	ldw	r3,112(sp)
    2514:	dd802704 	addi	r22,sp,156
    2518:	003e9406 	br	1f6c <___vfprintf_internal_r+0x175c>
    251c:	05400184 	movi	r21,6
    2520:	003e1706 	br	1d80 <___vfprintf_internal_r+0x1570>
    2524:	d9401345 	stb	r5,77(sp)
    2528:	00397906 	br	b10 <___vfprintf_internal_r+0x300>
    252c:	d9801a04 	addi	r6,sp,104
    2530:	900b883a 	mov	r5,r18
    2534:	9809883a 	mov	r4,r19
    2538:	0007fdc0 	call	7fdc <__sprint_r>
    253c:	0039c406 	br	c50 <___vfprintf_internal_r+0x440>
    2540:	d9000917 	ldw	r4,36(sp)
    2544:	000d883a 	mov	r6,zero
    2548:	000f883a 	mov	r7,zero
    254c:	a00b883a 	mov	r5,r20
    2550:	d8c01115 	stw	r3,68(sp)
    2554:	da000815 	stw	r8,32(sp)
    2558:	db000715 	stw	r12,28(sp)
    255c:	000c5940 	call	c594 <__eqdf2>
    2560:	db000717 	ldw	r12,28(sp)
    2564:	da000817 	ldw	r8,32(sp)
    2568:	d8c01117 	ldw	r3,68(sp)
    256c:	103f9d26 	beq	r2,zero,23e4 <___vfprintf_internal_r+0x1bd4>
    2570:	00800044 	movi	r2,1
    2574:	1205c83a 	sub	r2,r2,r8
    2578:	d8801415 	stw	r2,80(sp)
    257c:	003f9a06 	br	23e8 <___vfprintf_internal_r+0x1bd8>
    2580:	403ea81e 	bne	r8,zero,2024 <___vfprintf_internal_r+0x1814>
    2584:	02000044 	movi	r8,1
    2588:	003ea606 	br	2024 <___vfprintf_internal_r+0x1814>
    258c:	d9801a04 	addi	r6,sp,104
    2590:	900b883a 	mov	r5,r18
    2594:	9809883a 	mov	r4,r19
    2598:	0007fdc0 	call	7fdc <__sprint_r>
    259c:	1039ac1e 	bne	r2,zero,c50 <___vfprintf_internal_r+0x440>
    25a0:	d9401417 	ldw	r5,80(sp)
    25a4:	d8c01c17 	ldw	r3,112(sp)
    25a8:	d8801b17 	ldw	r2,108(sp)
    25ac:	dd802704 	addi	r22,sp,156
    25b0:	283e800e 	bge	r5,zero,1fb4 <___vfprintf_internal_r+0x17a4>
    25b4:	003f3806 	br	2298 <___vfprintf_internal_r+0x1a88>
    25b8:	d9801a04 	addi	r6,sp,104
    25bc:	900b883a 	mov	r5,r18
    25c0:	9809883a 	mov	r4,r19
    25c4:	0007fdc0 	call	7fdc <__sprint_r>
    25c8:	1039a11e 	bne	r2,zero,c50 <___vfprintf_internal_r+0x440>
    25cc:	d8c01c17 	ldw	r3,112(sp)
    25d0:	dd802704 	addi	r22,sp,156
    25d4:	003d1406 	br	1a28 <___vfprintf_internal_r+0x1218>
    25d8:	db000417 	ldw	r12,16(sp)
    25dc:	003a9f06 	br	105c <___vfprintf_internal_r+0x84c>
    25e0:	d8801804 	addi	r2,sp,96
    25e4:	d8800315 	stw	r2,12(sp)
    25e8:	d9400917 	ldw	r5,36(sp)
    25ec:	d8801504 	addi	r2,sp,84
    25f0:	40c00044 	addi	r3,r8,1
    25f4:	d8800215 	stw	r2,8(sp)
    25f8:	d8801404 	addi	r2,sp,80
    25fc:	d8c00015 	stw	r3,0(sp)
    2600:	d8800115 	stw	r2,4(sp)
    2604:	01c00084 	movi	r7,2
    2608:	a00d883a 	mov	r6,r20
    260c:	9809883a 	mov	r4,r19
    2610:	db001115 	stw	r12,68(sp)
    2614:	da000815 	stw	r8,32(sp)
    2618:	d8c00715 	stw	r3,28(sp)
    261c:	0002ea80 	call	2ea8 <_dtoa_r>
    2620:	d8c00717 	ldw	r3,28(sp)
    2624:	da000817 	ldw	r8,32(sp)
    2628:	db001117 	ldw	r12,68(sp)
    262c:	1023883a 	mov	r17,r2
    2630:	e08011d8 	cmpnei	r2,fp,71
    2634:	103e9c26 	beq	r2,zero,20a8 <___vfprintf_internal_r+0x1898>
    2638:	88d3883a 	add	r9,r17,r3
    263c:	003f6b06 	br	23ec <___vfprintf_internal_r+0x1bdc>
    2640:	d8801817 	ldw	r2,96(sp)
    2644:	127f762e 	bgeu	r2,r9,2420 <___vfprintf_internal_r+0x1c10>
    2648:	01000c04 	movi	r4,48
    264c:	10c00044 	addi	r3,r2,1
    2650:	d8c01815 	stw	r3,96(sp)
    2654:	11000005 	stb	r4,0(r2)
    2658:	d8801817 	ldw	r2,96(sp)
    265c:	127ffb36 	bltu	r2,r9,264c <___vfprintf_internal_r+0x1e3c>
    2660:	003f6f06 	br	2420 <___vfprintf_internal_r+0x1c10>
    2664:	d8800e17 	ldw	r2,56(sp)
    2668:	db401343 	ldbu	r13,77(sp)
    266c:	0011883a 	mov	r8,zero
    2670:	d8800615 	stw	r2,24(sp)
    2674:	003a8206 	br	1080 <___vfprintf_internal_r+0x870>
    2678:	d8800717 	ldw	r2,28(sp)
    267c:	d8c00817 	ldw	r3,32(sp)
    2680:	10c02b16 	blt	r2,r3,2730 <___vfprintf_internal_r+0x1f20>
    2684:	6300004c 	andi	r12,r12,1
    2688:	6000581e 	bne	r12,zero,27ec <___vfprintf_internal_r+0x1fdc>
    268c:	1029883a 	mov	r20,r2
    2690:	1000010e 	bge	r2,zero,2698 <___vfprintf_internal_r+0x1e88>
    2694:	0029883a 	mov	r20,zero
    2698:	dd400717 	ldw	r21,28(sp)
    269c:	070019c4 	movi	fp,103
    26a0:	003f6e06 	br	245c <___vfprintf_internal_r+0x1c4c>
    26a4:	d9801a04 	addi	r6,sp,104
    26a8:	900b883a 	mov	r5,r18
    26ac:	9809883a 	mov	r4,r19
    26b0:	0007fdc0 	call	7fdc <__sprint_r>
    26b4:	1039661e 	bne	r2,zero,c50 <___vfprintf_internal_r+0x440>
    26b8:	dd401417 	ldw	r21,80(sp)
    26bc:	d8c01c17 	ldw	r3,112(sp)
    26c0:	dd802704 	addi	r22,sp,156
    26c4:	003ce706 	br	1a64 <___vfprintf_internal_r+0x1254>
    26c8:	d9801a04 	addi	r6,sp,104
    26cc:	900b883a 	mov	r5,r18
    26d0:	9809883a 	mov	r4,r19
    26d4:	0007fdc0 	call	7fdc <__sprint_r>
    26d8:	10395d1e 	bne	r2,zero,c50 <___vfprintf_internal_r+0x440>
    26dc:	d8c01c17 	ldw	r3,112(sp)
    26e0:	dd802704 	addi	r22,sp,156
    26e4:	a83ccd0e 	bge	r21,zero,1a1c <___vfprintf_internal_r+0x120c>
    26e8:	003d9106 	br	1d30 <___vfprintf_internal_r+0x1520>
    26ec:	02000184 	movi	r8,6
    26f0:	003e4c06 	br	2024 <___vfprintf_internal_r+0x1814>
    26f4:	d9801a04 	addi	r6,sp,104
    26f8:	900b883a 	mov	r5,r18
    26fc:	9809883a 	mov	r4,r19
    2700:	0007fdc0 	call	7fdc <__sprint_r>
    2704:	1039521e 	bne	r2,zero,c50 <___vfprintf_internal_r+0x440>
    2708:	d8801417 	ldw	r2,80(sp)
    270c:	d9000817 	ldw	r4,32(sp)
    2710:	d8c01c17 	ldw	r3,112(sp)
    2714:	dd802704 	addi	r22,sp,156
    2718:	2085c83a 	sub	r2,r4,r2
    271c:	003ce506 	br	1ab4 <___vfprintf_internal_r+0x12a4>
    2720:	4029883a 	mov	r20,r8
    2724:	d8c00615 	stw	r3,24(sp)
    2728:	402b883a 	mov	r21,r8
    272c:	0038fe06 	br	b28 <___vfprintf_internal_r+0x318>
    2730:	d8800817 	ldw	r2,32(sp)
    2734:	d8c00b17 	ldw	r3,44(sp)
    2738:	10eb883a 	add	r21,r2,r3
    273c:	d8800717 	ldw	r2,28(sp)
    2740:	00800316 	blt	zero,r2,2750 <___vfprintf_internal_r+0x1f40>
    2744:	d8800717 	ldw	r2,28(sp)
    2748:	a8abc83a 	sub	r21,r21,r2
    274c:	ad400044 	addi	r21,r21,1
    2750:	a829883a 	mov	r20,r21
    2754:	a8002a16 	blt	r21,zero,2800 <___vfprintf_internal_r+0x1ff0>
    2758:	070019c4 	movi	fp,103
    275c:	003f3f06 	br	245c <___vfprintf_internal_r+0x1c4c>
    2760:	d9401345 	stb	r5,77(sp)
    2764:	003ae006 	br	12e8 <___vfprintf_internal_r+0xad8>
    2768:	d9401345 	stb	r5,77(sp)
    276c:	003a5906 	br	10d4 <___vfprintf_internal_r+0x8c4>
    2770:	d9401345 	stb	r5,77(sp)
    2774:	003b1706 	br	13d4 <___vfprintf_internal_r+0xbc4>
    2778:	d9401345 	stb	r5,77(sp)
    277c:	003a2206 	br	1008 <___vfprintf_internal_r+0x7f8>
    2780:	d9401345 	stb	r5,77(sp)
    2784:	003a6806 	br	1128 <___vfprintf_internal_r+0x918>
    2788:	d9401345 	stb	r5,77(sp)
    278c:	00399906 	br	df4 <___vfprintf_internal_r+0x5e4>
    2790:	00bfffc4 	movi	r2,-1
    2794:	d8800515 	stw	r2,20(sp)
    2798:	00393006 	br	c5c <___vfprintf_internal_r+0x44c>
    279c:	900f883a 	mov	r7,r18
    27a0:	8025883a 	mov	r18,r16
    27a4:	dc000717 	ldw	r16,28(sp)
    27a8:	10800044 	addi	r2,r2,1
    27ac:	1f07883a 	add	r3,r3,fp
    27b0:	b1c00015 	stw	r7,0(r22)
    27b4:	b7000115 	stw	fp,4(r22)
    27b8:	d8c01c15 	stw	r3,112(sp)
    27bc:	d8801b15 	stw	r2,108(sp)
    27c0:	11000208 	cmpgei	r4,r2,8
    27c4:	203dfa26 	beq	r4,zero,1fb0 <___vfprintf_internal_r+0x17a0>
    27c8:	d9801a04 	addi	r6,sp,104
    27cc:	900b883a 	mov	r5,r18
    27d0:	9809883a 	mov	r4,r19
    27d4:	0007fdc0 	call	7fdc <__sprint_r>
    27d8:	10391d1e 	bne	r2,zero,c50 <___vfprintf_internal_r+0x440>
    27dc:	d8c01c17 	ldw	r3,112(sp)
    27e0:	d8801b17 	ldw	r2,108(sp)
    27e4:	dd802704 	addi	r22,sp,156
    27e8:	003df206 	br	1fb4 <___vfprintf_internal_r+0x17a4>
    27ec:	d8800717 	ldw	r2,28(sp)
    27f0:	d8c00b17 	ldw	r3,44(sp)
    27f4:	10eb883a 	add	r21,r2,r3
    27f8:	a829883a 	mov	r20,r21
    27fc:	a83fd60e 	bge	r21,zero,2758 <___vfprintf_internal_r+0x1f48>
    2800:	0029883a 	mov	r20,zero
    2804:	003fd406 	br	2758 <___vfprintf_internal_r+0x1f48>
    2808:	00800c04 	movi	r2,48
    280c:	ad400c04 	addi	r21,r21,48
    2810:	d88016c5 	stb	r2,91(sp)
    2814:	00800104 	movi	r2,4
    2818:	dd401705 	stb	r21,92(sp)
    281c:	d8801015 	stw	r2,64(sp)
    2820:	003e6506 	br	21b8 <___vfprintf_internal_r+0x19a8>
    2824:	d8800a17 	ldw	r2,40(sp)
    2828:	10001916 	blt	r2,zero,2890 <___vfprintf_internal_r+0x2080>
    282c:	db401343 	ldbu	r13,77(sp)
    2830:	e0801210 	cmplti	r2,fp,72
    2834:	1000131e 	bne	r2,zero,2884 <___vfprintf_internal_r+0x2074>
    2838:	04400074 	movhi	r17,1
    283c:	8c401304 	addi	r17,r17,76
    2840:	00399b06 	br	eb0 <___vfprintf_internal_r+0x6a0>
    2844:	05400044 	movi	r21,1
    2848:	a8abc83a 	sub	r21,r21,r2
    284c:	00800b44 	movi	r2,45
    2850:	d8801685 	stb	r2,90(sp)
    2854:	003e2906 	br	20fc <___vfprintf_internal_r+0x18ec>
    2858:	d8800b17 	ldw	r2,44(sp)
    285c:	18ab883a 	add	r21,r3,r2
    2860:	aa2b883a 	add	r21,r21,r8
    2864:	a829883a 	mov	r20,r21
    2868:	a83efc0e 	bge	r21,zero,245c <___vfprintf_internal_r+0x1c4c>
    286c:	0029883a 	mov	r20,zero
    2870:	003efa06 	br	245c <___vfprintf_internal_r+0x1c4c>
    2874:	6080004c 	andi	r2,r12,1
    2878:	d8800715 	stw	r2,28(sp)
    287c:	103e531e 	bne	r2,zero,21cc <___vfprintf_internal_r+0x19bc>
    2880:	003ff806 	br	2864 <___vfprintf_internal_r+0x2054>
    2884:	04400074 	movhi	r17,1
    2888:	8c401204 	addi	r17,r17,72
    288c:	00398806 	br	eb0 <___vfprintf_internal_r+0x6a0>
    2890:	00800b44 	movi	r2,45
    2894:	d8801345 	stb	r2,77(sp)
    2898:	03400b44 	movi	r13,45
    289c:	003fe406 	br	2830 <___vfprintf_internal_r+0x2020>
    28a0:	1000031e 	bne	r2,zero,28b0 <___vfprintf_internal_r+0x20a0>
    28a4:	05000044 	movi	r20,1
    28a8:	05400044 	movi	r21,1
    28ac:	003eeb06 	br	245c <___vfprintf_internal_r+0x1c4c>
    28b0:	d8800b17 	ldw	r2,44(sp)
    28b4:	15400044 	addi	r21,r2,1
    28b8:	aa2b883a 	add	r21,r21,r8
    28bc:	003fe906 	br	2864 <___vfprintf_internal_r+0x2054>
    28c0:	b005883a 	mov	r2,r22
    28c4:	39c02104 	addi	r7,r7,132
    28c8:	003e9706 	br	2328 <___vfprintf_internal_r+0x1b18>
    28cc:	8025883a 	mov	r18,r16
    28d0:	0038df06 	br	c50 <___vfprintf_internal_r+0x440>
    28d4:	00800084 	movi	r2,2
    28d8:	d8801015 	stw	r2,64(sp)
    28dc:	003e3606 	br	21b8 <___vfprintf_internal_r+0x19a8>
    28e0:	d8800617 	ldw	r2,24(sp)
    28e4:	12000017 	ldw	r8,0(r2)
    28e8:	10800104 	addi	r2,r2,4
    28ec:	4000010e 	bge	r8,zero,28f4 <___vfprintf_internal_r+0x20e4>
    28f0:	023fffc4 	movi	r8,-1
    28f4:	bf000043 	ldbu	fp,1(r23)
    28f8:	d8800615 	stw	r2,24(sp)
    28fc:	182f883a 	mov	r23,r3
    2900:	e2c03fcc 	andi	r11,fp,255
    2904:	5ac0201c 	xori	r11,r11,128
    2908:	5affe004 	addi	r11,r11,-128
    290c:	00380f06 	br	94c <___vfprintf_internal_r+0x13c>

00002910 <__vfprintf_internal>:
    2910:	f811883a 	mov	r8,ra
    2914:	000e1ac0 	call	e1ac <_mcount>
    2918:	403f883a 	mov	ra,r8
    291c:	00c00074 	movhi	r3,1
    2920:	2005883a 	mov	r2,r4
    2924:	1908d117 	ldw	r4,9028(r3)
    2928:	300f883a 	mov	r7,r6
    292c:	280d883a 	mov	r6,r5
    2930:	100b883a 	mov	r5,r2
    2934:	00008101 	jmpi	810 <___vfprintf_internal_r>

00002938 <__sbprintf>:
    2938:	f811883a 	mov	r8,ra
    293c:	000e1ac0 	call	e1ac <_mcount>
    2940:	403f883a 	mov	ra,r8
    2944:	defee204 	addi	sp,sp,-1144
    2948:	dfc11d15 	stw	ra,1140(sp)
    294c:	dc811c15 	stw	r18,1136(sp)
    2950:	dc411b15 	stw	r17,1132(sp)
    2954:	dc011a15 	stw	r16,1128(sp)
    2958:	2880030b 	ldhu	r2,12(r5)
    295c:	2b001917 	ldw	r12,100(r5)
    2960:	2ac0038b 	ldhu	r11,14(r5)
    2964:	2a800717 	ldw	r10,28(r5)
    2968:	2a400917 	ldw	r9,36(r5)
    296c:	da001a04 	addi	r8,sp,104
    2970:	00c10004 	movi	r3,1024
    2974:	10bfff4c 	andi	r2,r2,65533
    2978:	2821883a 	mov	r16,r5
    297c:	d80b883a 	mov	r5,sp
    2980:	2025883a 	mov	r18,r4
    2984:	d880030d 	sth	r2,12(sp)
    2988:	db001915 	stw	r12,100(sp)
    298c:	dac0038d 	sth	r11,14(sp)
    2990:	da800715 	stw	r10,28(sp)
    2994:	da400915 	stw	r9,36(sp)
    2998:	da000015 	stw	r8,0(sp)
    299c:	da000415 	stw	r8,16(sp)
    29a0:	d8c00215 	stw	r3,8(sp)
    29a4:	d8c00515 	stw	r3,20(sp)
    29a8:	d8000615 	stw	zero,24(sp)
    29ac:	00008100 	call	810 <___vfprintf_internal_r>
    29b0:	1023883a 	mov	r17,r2
    29b4:	10000d0e 	bge	r2,zero,29ec <__sbprintf+0xb4>
    29b8:	d880030b 	ldhu	r2,12(sp)
    29bc:	1080100c 	andi	r2,r2,64
    29c0:	10000326 	beq	r2,zero,29d0 <__sbprintf+0x98>
    29c4:	8080030b 	ldhu	r2,12(r16)
    29c8:	10801014 	ori	r2,r2,64
    29cc:	8080030d 	sth	r2,12(r16)
    29d0:	8805883a 	mov	r2,r17
    29d4:	dfc11d17 	ldw	ra,1140(sp)
    29d8:	dc811c17 	ldw	r18,1136(sp)
    29dc:	dc411b17 	ldw	r17,1132(sp)
    29e0:	dc011a17 	ldw	r16,1128(sp)
    29e4:	dec11e04 	addi	sp,sp,1144
    29e8:	f800283a 	ret
    29ec:	d80b883a 	mov	r5,sp
    29f0:	9009883a 	mov	r4,r18
    29f4:	00048300 	call	4830 <_fflush_r>
    29f8:	103fef26 	beq	r2,zero,29b8 <__sbprintf+0x80>
    29fc:	047fffc4 	movi	r17,-1
    2a00:	003fed06 	br	29b8 <__sbprintf+0x80>

00002a04 <__swsetup_r>:
    2a04:	f811883a 	mov	r8,ra
    2a08:	000e1ac0 	call	e1ac <_mcount>
    2a0c:	403f883a 	mov	ra,r8
    2a10:	defffd04 	addi	sp,sp,-12
    2a14:	dfc00215 	stw	ra,8(sp)
    2a18:	dc400115 	stw	r17,4(sp)
    2a1c:	dc000015 	stw	r16,0(sp)
    2a20:	00800074 	movhi	r2,1
    2a24:	1088d117 	ldw	r2,9028(r2)
    2a28:	2023883a 	mov	r17,r4
    2a2c:	2821883a 	mov	r16,r5
    2a30:	10000226 	beq	r2,zero,2a3c <__swsetup_r+0x38>
    2a34:	10c00e17 	ldw	r3,56(r2)
    2a38:	18001f26 	beq	r3,zero,2ab8 <__swsetup_r+0xb4>
    2a3c:	8180030b 	ldhu	r6,12(r16)
    2a40:	30c0020c 	andi	r3,r6,8
    2a44:	3005883a 	mov	r2,r6
    2a48:	18002126 	beq	r3,zero,2ad0 <__swsetup_r+0xcc>
    2a4c:	80c00417 	ldw	r3,16(r16)
    2a50:	18002826 	beq	r3,zero,2af4 <__swsetup_r+0xf0>
    2a54:	1100004c 	andi	r4,r2,1
    2a58:	20000b1e 	bne	r4,zero,2a88 <__swsetup_r+0x84>
    2a5c:	1100008c 	andi	r4,r2,2
    2a60:	20002e1e 	bne	r4,zero,2b1c <__swsetup_r+0x118>
    2a64:	81000517 	ldw	r4,20(r16)
    2a68:	81000215 	stw	r4,8(r16)
    2a6c:	18000b26 	beq	r3,zero,2a9c <__swsetup_r+0x98>
    2a70:	0005883a 	mov	r2,zero
    2a74:	dfc00217 	ldw	ra,8(sp)
    2a78:	dc400117 	ldw	r17,4(sp)
    2a7c:	dc000017 	ldw	r16,0(sp)
    2a80:	dec00304 	addi	sp,sp,12
    2a84:	f800283a 	ret
    2a88:	81000517 	ldw	r4,20(r16)
    2a8c:	80000215 	stw	zero,8(r16)
    2a90:	0109c83a 	sub	r4,zero,r4
    2a94:	81000615 	stw	r4,24(r16)
    2a98:	183ff51e 	bne	r3,zero,2a70 <__swsetup_r+0x6c>
    2a9c:	10c0200c 	andi	r3,r2,128
    2aa0:	0005883a 	mov	r2,zero
    2aa4:	183ff326 	beq	r3,zero,2a74 <__swsetup_r+0x70>
    2aa8:	31801014 	ori	r6,r6,64
    2aac:	8180030d 	sth	r6,12(r16)
    2ab0:	00bfffc4 	movi	r2,-1
    2ab4:	003fef06 	br	2a74 <__swsetup_r+0x70>
    2ab8:	1009883a 	mov	r4,r2
    2abc:	0004cd40 	call	4cd4 <__sinit>
    2ac0:	8180030b 	ldhu	r6,12(r16)
    2ac4:	30c0020c 	andi	r3,r6,8
    2ac8:	3005883a 	mov	r2,r6
    2acc:	183fdf1e 	bne	r3,zero,2a4c <__swsetup_r+0x48>
    2ad0:	3080040c 	andi	r2,r6,16
    2ad4:	10002126 	beq	r2,zero,2b5c <__swsetup_r+0x158>
    2ad8:	3080010c 	andi	r2,r6,4
    2adc:	1000111e 	bne	r2,zero,2b24 <__swsetup_r+0x120>
    2ae0:	80c00417 	ldw	r3,16(r16)
    2ae4:	30800214 	ori	r2,r6,8
    2ae8:	8080030d 	sth	r2,12(r16)
    2aec:	100d883a 	mov	r6,r2
    2af0:	183fd81e 	bne	r3,zero,2a54 <__swsetup_r+0x50>
    2af4:	1100a00c 	andi	r4,r2,640
    2af8:	21008020 	cmpeqi	r4,r4,512
    2afc:	203fd51e 	bne	r4,zero,2a54 <__swsetup_r+0x50>
    2b00:	800b883a 	mov	r5,r16
    2b04:	8809883a 	mov	r4,r17
    2b08:	00058000 	call	5800 <__smakebuf_r>
    2b0c:	8180030b 	ldhu	r6,12(r16)
    2b10:	80c00417 	ldw	r3,16(r16)
    2b14:	3005883a 	mov	r2,r6
    2b18:	003fce06 	br	2a54 <__swsetup_r+0x50>
    2b1c:	0009883a 	mov	r4,zero
    2b20:	003fd106 	br	2a68 <__swsetup_r+0x64>
    2b24:	81400c17 	ldw	r5,48(r16)
    2b28:	28000626 	beq	r5,zero,2b44 <__swsetup_r+0x140>
    2b2c:	80801004 	addi	r2,r16,64
    2b30:	28800326 	beq	r5,r2,2b40 <__swsetup_r+0x13c>
    2b34:	8809883a 	mov	r4,r17
    2b38:	0004e980 	call	4e98 <_free_r>
    2b3c:	8180030b 	ldhu	r6,12(r16)
    2b40:	80000c15 	stw	zero,48(r16)
    2b44:	80c00417 	ldw	r3,16(r16)
    2b48:	00bff6c4 	movi	r2,-37
    2b4c:	118c703a 	and	r6,r2,r6
    2b50:	80000115 	stw	zero,4(r16)
    2b54:	80c00015 	stw	r3,0(r16)
    2b58:	003fe206 	br	2ae4 <__swsetup_r+0xe0>
    2b5c:	00800244 	movi	r2,9
    2b60:	88800015 	stw	r2,0(r17)
    2b64:	31801014 	ori	r6,r6,64
    2b68:	8180030d 	sth	r6,12(r16)
    2b6c:	00bfffc4 	movi	r2,-1
    2b70:	003fc006 	br	2a74 <__swsetup_r+0x70>

00002b74 <__call_exitprocs>:
    2b74:	f811883a 	mov	r8,ra
    2b78:	000e1ac0 	call	e1ac <_mcount>
    2b7c:	403f883a 	mov	ra,r8
    2b80:	defff704 	addi	sp,sp,-36
    2b84:	dfc00815 	stw	ra,32(sp)
    2b88:	ddc00715 	stw	r23,28(sp)
    2b8c:	dd800615 	stw	r22,24(sp)
    2b90:	dd400515 	stw	r21,20(sp)
    2b94:	dd000415 	stw	r20,16(sp)
    2b98:	dcc00315 	stw	r19,12(sp)
    2b9c:	dc800215 	stw	r18,8(sp)
    2ba0:	dc400115 	stw	r17,4(sp)
    2ba4:	dc000015 	stw	r16,0(sp)
    2ba8:	00800074 	movhi	r2,1
    2bac:	14c8d017 	ldw	r19,9024(r2)
    2bb0:	9c805217 	ldw	r18,328(r19)
    2bb4:	90001026 	beq	r18,zero,2bf8 <__call_exitprocs+0x84>
    2bb8:	202b883a 	mov	r21,r4
    2bbc:	282d883a 	mov	r22,r5
    2bc0:	05000044 	movi	r20,1
    2bc4:	94000117 	ldw	r16,4(r18)
    2bc8:	847fffc4 	addi	r17,r16,-1
    2bcc:	88000a16 	blt	r17,zero,2bf8 <__call_exitprocs+0x84>
    2bd0:	84000044 	addi	r16,r16,1
    2bd4:	802090ba 	slli	r16,r16,2
    2bd8:	9421883a 	add	r16,r18,r16
    2bdc:	b0001126 	beq	r22,zero,2c24 <__call_exitprocs+0xb0>
    2be0:	80804017 	ldw	r2,256(r16)
    2be4:	15800f26 	beq	r2,r22,2c24 <__call_exitprocs+0xb0>
    2be8:	8c7fffc4 	addi	r17,r17,-1
    2bec:	88bfffd8 	cmpnei	r2,r17,-1
    2bf0:	843fff04 	addi	r16,r16,-4
    2bf4:	103ff91e 	bne	r2,zero,2bdc <__call_exitprocs+0x68>
    2bf8:	dfc00817 	ldw	ra,32(sp)
    2bfc:	ddc00717 	ldw	r23,28(sp)
    2c00:	dd800617 	ldw	r22,24(sp)
    2c04:	dd400517 	ldw	r21,20(sp)
    2c08:	dd000417 	ldw	r20,16(sp)
    2c0c:	dcc00317 	ldw	r19,12(sp)
    2c10:	dc800217 	ldw	r18,8(sp)
    2c14:	dc400117 	ldw	r17,4(sp)
    2c18:	dc000017 	ldw	r16,0(sp)
    2c1c:	dec00904 	addi	sp,sp,36
    2c20:	f800283a 	ret
    2c24:	90800117 	ldw	r2,4(r18)
    2c28:	81800017 	ldw	r6,0(r16)
    2c2c:	10bfffc4 	addi	r2,r2,-1
    2c30:	14401726 	beq	r2,r17,2c90 <__call_exitprocs+0x11c>
    2c34:	80000015 	stw	zero,0(r16)
    2c38:	303feb26 	beq	r6,zero,2be8 <__call_exitprocs+0x74>
    2c3c:	a446983a 	sll	r3,r20,r17
    2c40:	90806217 	ldw	r2,392(r18)
    2c44:	95c00117 	ldw	r23,4(r18)
    2c48:	1884703a 	and	r2,r3,r2
    2c4c:	1000081e 	bne	r2,zero,2c70 <__call_exitprocs+0xfc>
    2c50:	303ee83a 	callr	r6
    2c54:	90c00117 	ldw	r3,4(r18)
    2c58:	98805217 	ldw	r2,328(r19)
    2c5c:	1dc0011e 	bne	r3,r23,2c64 <__call_exitprocs+0xf0>
    2c60:	90bfe126 	beq	r18,r2,2be8 <__call_exitprocs+0x74>
    2c64:	103fe426 	beq	r2,zero,2bf8 <__call_exitprocs+0x84>
    2c68:	1025883a 	mov	r18,r2
    2c6c:	003fd506 	br	2bc4 <__call_exitprocs+0x50>
    2c70:	90806317 	ldw	r2,396(r18)
    2c74:	81002017 	ldw	r4,128(r16)
    2c78:	1886703a 	and	r3,r3,r2
    2c7c:	1800061e 	bne	r3,zero,2c98 <__call_exitprocs+0x124>
    2c80:	200b883a 	mov	r5,r4
    2c84:	a809883a 	mov	r4,r21
    2c88:	303ee83a 	callr	r6
    2c8c:	003ff106 	br	2c54 <__call_exitprocs+0xe0>
    2c90:	94400115 	stw	r17,4(r18)
    2c94:	003fe806 	br	2c38 <__call_exitprocs+0xc4>
    2c98:	303ee83a 	callr	r6
    2c9c:	003fed06 	br	2c54 <__call_exitprocs+0xe0>

00002ca0 <quorem>:
    2ca0:	f811883a 	mov	r8,ra
    2ca4:	000e1ac0 	call	e1ac <_mcount>
    2ca8:	403f883a 	mov	ra,r8
    2cac:	defff504 	addi	sp,sp,-44
    2cb0:	dfc00a15 	stw	ra,40(sp)
    2cb4:	df000915 	stw	fp,36(sp)
    2cb8:	ddc00815 	stw	r23,32(sp)
    2cbc:	dd800715 	stw	r22,28(sp)
    2cc0:	dd400615 	stw	r21,24(sp)
    2cc4:	dd000515 	stw	r20,20(sp)
    2cc8:	dcc00415 	stw	r19,16(sp)
    2ccc:	dc800315 	stw	r18,12(sp)
    2cd0:	dc400215 	stw	r17,8(sp)
    2cd4:	dc000115 	stw	r16,4(sp)
    2cd8:	2c800417 	ldw	r18,16(r5)
    2cdc:	20800417 	ldw	r2,16(r4)
    2ce0:	14806f16 	blt	r2,r18,2ea0 <quorem+0x200>
    2ce4:	94bfffc4 	addi	r18,r18,-1
    2ce8:	902c90ba 	slli	r22,r18,2
    2cec:	2c000504 	addi	r16,r5,20
    2cf0:	25000504 	addi	r20,r4,20
    2cf4:	85a7883a 	add	r19,r16,r22
    2cf8:	9f000017 	ldw	fp,0(r19)
    2cfc:	a5ad883a 	add	r22,r20,r22
    2d00:	202b883a 	mov	r21,r4
    2d04:	b1000017 	ldw	r4,0(r22)
    2d08:	e7000044 	addi	fp,fp,1
    2d0c:	282f883a 	mov	r23,r5
    2d10:	e00b883a 	mov	r5,fp
    2d14:	d9000015 	stw	r4,0(sp)
    2d18:	000b3580 	call	b358 <__udivsi3>
    2d1c:	d9000017 	ldw	r4,0(sp)
    2d20:	1023883a 	mov	r17,r2
    2d24:	27002a36 	bltu	r4,fp,2dd0 <quorem+0x130>
    2d28:	800b883a 	mov	r5,r16
    2d2c:	a009883a 	mov	r4,r20
    2d30:	0013883a 	mov	r9,zero
    2d34:	0007883a 	mov	r3,zero
    2d38:	2a000017 	ldw	r8,0(r5)
    2d3c:	21800017 	ldw	r6,0(r4)
    2d40:	21000104 	addi	r4,r4,4
    2d44:	40bfffcc 	andi	r2,r8,65535
    2d48:	1445383a 	mul	r2,r2,r17
    2d4c:	400ed43a 	srli	r7,r8,16
    2d50:	32bfffcc 	andi	r10,r6,65535
    2d54:	1245883a 	add	r2,r2,r9
    2d58:	1012d43a 	srli	r9,r2,16
    2d5c:	123fffcc 	andi	r8,r2,65535
    2d60:	3c4f383a 	mul	r7,r7,r17
    2d64:	1a07c83a 	sub	r3,r3,r8
    2d68:	1a91883a 	add	r8,r3,r10
    2d6c:	3006d43a 	srli	r3,r6,16
    2d70:	4005d43a 	srai	r2,r8,16
    2d74:	3a4f883a 	add	r7,r7,r9
    2d78:	39bfffcc 	andi	r6,r7,65535
    2d7c:	1987c83a 	sub	r3,r3,r6
    2d80:	1887883a 	add	r3,r3,r2
    2d84:	1804943a 	slli	r2,r3,16
    2d88:	423fffcc 	andi	r8,r8,65535
    2d8c:	29400104 	addi	r5,r5,4
    2d90:	1210b03a 	or	r8,r2,r8
    2d94:	223fff15 	stw	r8,-4(r4)
    2d98:	3812d43a 	srli	r9,r7,16
    2d9c:	1807d43a 	srai	r3,r3,16
    2da0:	997fe52e 	bgeu	r19,r5,2d38 <quorem+0x98>
    2da4:	b0800017 	ldw	r2,0(r22)
    2da8:	1000091e 	bne	r2,zero,2dd0 <quorem+0x130>
    2dac:	b5bfff04 	addi	r22,r22,-4
    2db0:	a5800336 	bltu	r20,r22,2dc0 <quorem+0x120>
    2db4:	00000506 	br	2dcc <quorem+0x12c>
    2db8:	94bfffc4 	addi	r18,r18,-1
    2dbc:	a580032e 	bgeu	r20,r22,2dcc <quorem+0x12c>
    2dc0:	b0800017 	ldw	r2,0(r22)
    2dc4:	b5bfff04 	addi	r22,r22,-4
    2dc8:	103ffb26 	beq	r2,zero,2db8 <quorem+0x118>
    2dcc:	ac800415 	stw	r18,16(r21)
    2dd0:	b80b883a 	mov	r5,r23
    2dd4:	a809883a 	mov	r4,r21
    2dd8:	0006fe80 	call	6fe8 <__mcmp>
    2ddc:	10002316 	blt	r2,zero,2e6c <quorem+0x1cc>
    2de0:	8c400044 	addi	r17,r17,1
    2de4:	a00d883a 	mov	r6,r20
    2de8:	0007883a 	mov	r3,zero
    2dec:	81000017 	ldw	r4,0(r16)
    2df0:	31400017 	ldw	r5,0(r6)
    2df4:	31800104 	addi	r6,r6,4
    2df8:	20bfffcc 	andi	r2,r4,65535
    2dfc:	1887c83a 	sub	r3,r3,r2
    2e00:	28bfffcc 	andi	r2,r5,65535
    2e04:	1885883a 	add	r2,r3,r2
    2e08:	2008d43a 	srli	r4,r4,16
    2e0c:	2806d43a 	srli	r3,r5,16
    2e10:	100fd43a 	srai	r7,r2,16
    2e14:	117fffcc 	andi	r5,r2,65535
    2e18:	1907c83a 	sub	r3,r3,r4
    2e1c:	19c7883a 	add	r3,r3,r7
    2e20:	1804943a 	slli	r2,r3,16
    2e24:	84000104 	addi	r16,r16,4
    2e28:	1807d43a 	srai	r3,r3,16
    2e2c:	1144b03a 	or	r2,r2,r5
    2e30:	30bfff15 	stw	r2,-4(r6)
    2e34:	9c3fed2e 	bgeu	r19,r16,2dec <quorem+0x14c>
    2e38:	900490ba 	slli	r2,r18,2
    2e3c:	a085883a 	add	r2,r20,r2
    2e40:	10c00017 	ldw	r3,0(r2)
    2e44:	1800091e 	bne	r3,zero,2e6c <quorem+0x1cc>
    2e48:	10bfff04 	addi	r2,r2,-4
    2e4c:	a0800336 	bltu	r20,r2,2e5c <quorem+0x1bc>
    2e50:	00000506 	br	2e68 <quorem+0x1c8>
    2e54:	94bfffc4 	addi	r18,r18,-1
    2e58:	a080032e 	bgeu	r20,r2,2e68 <quorem+0x1c8>
    2e5c:	10c00017 	ldw	r3,0(r2)
    2e60:	10bfff04 	addi	r2,r2,-4
    2e64:	183ffb26 	beq	r3,zero,2e54 <quorem+0x1b4>
    2e68:	ac800415 	stw	r18,16(r21)
    2e6c:	8805883a 	mov	r2,r17
    2e70:	dfc00a17 	ldw	ra,40(sp)
    2e74:	df000917 	ldw	fp,36(sp)
    2e78:	ddc00817 	ldw	r23,32(sp)
    2e7c:	dd800717 	ldw	r22,28(sp)
    2e80:	dd400617 	ldw	r21,24(sp)
    2e84:	dd000517 	ldw	r20,20(sp)
    2e88:	dcc00417 	ldw	r19,16(sp)
    2e8c:	dc800317 	ldw	r18,12(sp)
    2e90:	dc400217 	ldw	r17,8(sp)
    2e94:	dc000117 	ldw	r16,4(sp)
    2e98:	dec00b04 	addi	sp,sp,44
    2e9c:	f800283a 	ret
    2ea0:	0005883a 	mov	r2,zero
    2ea4:	003ff206 	br	2e70 <quorem+0x1d0>

00002ea8 <_dtoa_r>:
    2ea8:	f811883a 	mov	r8,ra
    2eac:	000e1ac0 	call	e1ac <_mcount>
    2eb0:	403f883a 	mov	ra,r8
    2eb4:	deffe204 	addi	sp,sp,-120
    2eb8:	dfc01d15 	stw	ra,116(sp)
    2ebc:	df001c15 	stw	fp,112(sp)
    2ec0:	ddc01b15 	stw	r23,108(sp)
    2ec4:	dd801a15 	stw	r22,104(sp)
    2ec8:	dd401915 	stw	r21,100(sp)
    2ecc:	dd001815 	stw	r20,96(sp)
    2ed0:	dcc01715 	stw	r19,92(sp)
    2ed4:	dc801615 	stw	r18,88(sp)
    2ed8:	dc401515 	stw	r17,84(sp)
    2edc:	dc001415 	stw	r16,80(sp)
    2ee0:	20801017 	ldw	r2,64(r4)
    2ee4:	d9c00215 	stw	r7,8(sp)
    2ee8:	dc002017 	ldw	r16,128(sp)
    2eec:	202f883a 	mov	r23,r4
    2ef0:	3025883a 	mov	r18,r6
    2ef4:	2827883a 	mov	r19,r5
    2ef8:	3023883a 	mov	r17,r6
    2efc:	10000826 	beq	r2,zero,2f20 <_dtoa_r+0x78>
    2f00:	21801117 	ldw	r6,68(r4)
    2f04:	00c00044 	movi	r3,1
    2f08:	100b883a 	mov	r5,r2
    2f0c:	1986983a 	sll	r3,r3,r6
    2f10:	11800115 	stw	r6,4(r2)
    2f14:	10c00215 	stw	r3,8(r2)
    2f18:	00066000 	call	6600 <_Bfree>
    2f1c:	b8001015 	stw	zero,64(r23)
    2f20:	90018816 	blt	r18,zero,3544 <_dtoa_r+0x69c>
    2f24:	80000015 	stw	zero,0(r16)
    2f28:	909ffc2c 	andhi	r2,r18,32752
    2f2c:	00dffc34 	movhi	r3,32752
    2f30:	10c18d26 	beq	r2,r3,3568 <_dtoa_r+0x6c0>
    2f34:	000d883a 	mov	r6,zero
    2f38:	000f883a 	mov	r7,zero
    2f3c:	9809883a 	mov	r4,r19
    2f40:	880b883a 	mov	r5,r17
    2f44:	000c5940 	call	c594 <__eqdf2>
    2f48:	1000191e 	bne	r2,zero,2fb0 <_dtoa_r+0x108>
    2f4c:	d8c01f17 	ldw	r3,124(sp)
    2f50:	00800044 	movi	r2,1
    2f54:	18800015 	stw	r2,0(r3)
    2f58:	d8802117 	ldw	r2,132(sp)
    2f5c:	1002f926 	beq	r2,zero,3b44 <_dtoa_r+0xc9c>
    2f60:	d9002117 	ldw	r4,132(sp)
    2f64:	00800074 	movhi	r2,1
    2f68:	10802044 	addi	r2,r2,129
    2f6c:	00c00074 	movhi	r3,1
    2f70:	20800015 	stw	r2,0(r4)
    2f74:	18802004 	addi	r2,r3,128
    2f78:	d8800115 	stw	r2,4(sp)
    2f7c:	d8800117 	ldw	r2,4(sp)
    2f80:	dfc01d17 	ldw	ra,116(sp)
    2f84:	df001c17 	ldw	fp,112(sp)
    2f88:	ddc01b17 	ldw	r23,108(sp)
    2f8c:	dd801a17 	ldw	r22,104(sp)
    2f90:	dd401917 	ldw	r21,100(sp)
    2f94:	dd001817 	ldw	r20,96(sp)
    2f98:	dcc01717 	ldw	r19,92(sp)
    2f9c:	dc801617 	ldw	r18,88(sp)
    2fa0:	dc401517 	ldw	r17,84(sp)
    2fa4:	dc001417 	ldw	r16,80(sp)
    2fa8:	dec01e04 	addi	sp,sp,120
    2fac:	f800283a 	ret
    2fb0:	d8801204 	addi	r2,sp,72
    2fb4:	9020d53a 	srli	r16,r18,20
    2fb8:	d8800015 	stw	r2,0(sp)
    2fbc:	d9c01304 	addi	r7,sp,76
    2fc0:	980b883a 	mov	r5,r19
    2fc4:	880d883a 	mov	r6,r17
    2fc8:	b809883a 	mov	r4,r23
    2fcc:	00073f80 	call	73f8 <__d2b>
    2fd0:	1039883a 	mov	fp,r2
    2fd4:	8001771e 	bne	r16,zero,35b4 <_dtoa_r+0x70c>
    2fd8:	dd001217 	ldw	r20,72(sp)
    2fdc:	dc001317 	ldw	r16,76(sp)
    2fe0:	a421883a 	add	r16,r20,r16
    2fe4:	80810c84 	addi	r2,r16,1074
    2fe8:	10c00850 	cmplti	r3,r2,33
    2fec:	1802e51e 	bne	r3,zero,3b84 <_dtoa_r+0xcdc>
    2ff0:	01001004 	movi	r4,64
    2ff4:	2085c83a 	sub	r2,r4,r2
    2ff8:	81010484 	addi	r4,r16,1042
    2ffc:	90a4983a 	sll	r18,r18,r2
    3000:	9908d83a 	srl	r4,r19,r4
    3004:	9108b03a 	or	r4,r18,r4
    3008:	000d8f80 	call	d8f8 <__floatunsidf>
    300c:	1009883a 	mov	r4,r2
    3010:	017f8434 	movhi	r5,65040
    3014:	00800044 	movi	r2,1
    3018:	194b883a 	add	r5,r3,r5
    301c:	843fffc4 	addi	r16,r16,-1
    3020:	d8800a15 	stw	r2,40(sp)
    3024:	000d883a 	mov	r6,zero
    3028:	01cffe34 	movhi	r7,16376
    302c:	000ce880 	call	ce88 <__subdf3>
    3030:	0198dbf4 	movhi	r6,25455
    3034:	01cff4f4 	movhi	r7,16339
    3038:	3190d844 	addi	r6,r6,17249
    303c:	39e1e9c4 	addi	r7,r7,-30809
    3040:	1009883a 	mov	r4,r2
    3044:	180b883a 	mov	r5,r3
    3048:	000c8080 	call	c808 <__muldf3>
    304c:	01a2d874 	movhi	r6,35681
    3050:	01cff1f4 	movhi	r7,16327
    3054:	31b22cc4 	addi	r6,r6,-14157
    3058:	39e28a04 	addi	r7,r7,-30168
    305c:	180b883a 	mov	r5,r3
    3060:	1009883a 	mov	r4,r2
    3064:	000b4300 	call	b430 <__adddf3>
    3068:	8009883a 	mov	r4,r16
    306c:	102b883a 	mov	r21,r2
    3070:	1825883a 	mov	r18,r3
    3074:	000d8340 	call	d834 <__floatsidf>
    3078:	019427f4 	movhi	r6,20639
    307c:	01cff4f4 	movhi	r7,16339
    3080:	319e7ec4 	addi	r6,r6,31227
    3084:	39d104c4 	addi	r7,r7,17427
    3088:	1009883a 	mov	r4,r2
    308c:	180b883a 	mov	r5,r3
    3090:	000c8080 	call	c808 <__muldf3>
    3094:	100d883a 	mov	r6,r2
    3098:	180f883a 	mov	r7,r3
    309c:	a809883a 	mov	r4,r21
    30a0:	900b883a 	mov	r5,r18
    30a4:	000b4300 	call	b430 <__adddf3>
    30a8:	1009883a 	mov	r4,r2
    30ac:	180b883a 	mov	r5,r3
    30b0:	1025883a 	mov	r18,r2
    30b4:	182d883a 	mov	r22,r3
    30b8:	000d7a80 	call	d7a8 <__fixdfsi>
    30bc:	000d883a 	mov	r6,zero
    30c0:	000f883a 	mov	r7,zero
    30c4:	9009883a 	mov	r4,r18
    30c8:	b00b883a 	mov	r5,r22
    30cc:	102b883a 	mov	r21,r2
    30d0:	d8800315 	stw	r2,12(sp)
    30d4:	000c7140 	call	c714 <__ledf2>
    30d8:	10028f16 	blt	r2,zero,3b18 <_dtoa_r+0xc70>
    30dc:	dc800317 	ldw	r18,12(sp)
    30e0:	a421c83a 	sub	r16,r20,r16
    30e4:	85bfffc4 	addi	r22,r16,-1
    30e8:	908005e8 	cmpgeui	r2,r18,23
    30ec:	1002821e 	bne	r2,zero,3af8 <_dtoa_r+0xc50>
    30f0:	900690fa 	slli	r3,r18,3
    30f4:	00800074 	movhi	r2,1
    30f8:	10806904 	addi	r2,r2,420
    30fc:	10c5883a 	add	r2,r2,r3
    3100:	11800017 	ldw	r6,0(r2)
    3104:	11c00117 	ldw	r7,4(r2)
    3108:	9809883a 	mov	r4,r19
    310c:	880b883a 	mov	r5,r17
    3110:	000c7140 	call	c714 <__ledf2>
    3114:	1002550e 	bge	r2,zero,3a6c <_dtoa_r+0xbc4>
    3118:	90bfffc4 	addi	r2,r18,-1
    311c:	d8800315 	stw	r2,12(sp)
    3120:	d8000915 	stw	zero,36(sp)
    3124:	b0027716 	blt	r22,zero,3b04 <_dtoa_r+0xc5c>
    3128:	d8000615 	stw	zero,24(sp)
    312c:	d8800317 	ldw	r2,12(sp)
    3130:	1002510e 	bge	r2,zero,3a78 <_dtoa_r+0xbd0>
    3134:	d8800317 	ldw	r2,12(sp)
    3138:	d8c00617 	ldw	r3,24(sp)
    313c:	d8000315 	stw	zero,12(sp)
    3140:	d8800415 	stw	r2,16(sp)
    3144:	1887c83a 	sub	r3,r3,r2
    3148:	d8c00615 	stw	r3,24(sp)
    314c:	0087c83a 	sub	r3,zero,r2
    3150:	d8c00815 	stw	r3,32(sp)
    3154:	d8c00217 	ldw	r3,8(sp)
    3158:	188002a8 	cmpgeui	r2,r3,10
    315c:	10024d1e 	bne	r2,zero,3a94 <_dtoa_r+0xbec>
    3160:	18800190 	cmplti	r2,r3,6
    3164:	10028b1e 	bne	r2,zero,3b94 <_dtoa_r+0xcec>
    3168:	18bfff04 	addi	r2,r3,-4
    316c:	d8800215 	stw	r2,8(sp)
    3170:	0021883a 	mov	r16,zero
    3174:	d8c00217 	ldw	r3,8(sp)
    3178:	18800120 	cmpeqi	r2,r3,4
    317c:	10035d1e 	bne	r2,zero,3ef4 <_dtoa_r+0x104c>
    3180:	18800160 	cmpeqi	r2,r3,5
    3184:	10031b1e 	bne	r2,zero,3df4 <_dtoa_r+0xf4c>
    3188:	188000a0 	cmpeqi	r2,r3,2
    318c:	10024d26 	beq	r2,zero,3ac4 <_dtoa_r+0xc1c>
    3190:	d8000715 	stw	zero,28(sp)
    3194:	d8801e17 	ldw	r2,120(sp)
    3198:	0083260e 	bge	zero,r2,3e34 <_dtoa_r+0xf8c>
    319c:	d8800b15 	stw	r2,44(sp)
    31a0:	d8800515 	stw	r2,20(sp)
    31a4:	100d883a 	mov	r6,r2
    31a8:	b8001115 	stw	zero,68(r23)
    31ac:	30800610 	cmplti	r2,r6,24
    31b0:	1004f11e 	bne	r2,zero,4578 <_dtoa_r+0x16d0>
    31b4:	00c00044 	movi	r3,1
    31b8:	00800104 	movi	r2,4
    31bc:	1085883a 	add	r2,r2,r2
    31c0:	11000504 	addi	r4,r2,20
    31c4:	180b883a 	mov	r5,r3
    31c8:	18c00044 	addi	r3,r3,1
    31cc:	313ffb2e 	bgeu	r6,r4,31bc <_dtoa_r+0x314>
    31d0:	b9401115 	stw	r5,68(r23)
    31d4:	b809883a 	mov	r4,r23
    31d8:	00065500 	call	6550 <_Balloc>
    31dc:	d8800115 	stw	r2,4(sp)
    31e0:	1004de26 	beq	r2,zero,455c <_dtoa_r+0x16b4>
    31e4:	d8800117 	ldw	r2,4(sp)
    31e8:	b8801015 	stw	r2,64(r23)
    31ec:	d8800517 	ldw	r2,20(sp)
    31f0:	108003e8 	cmpgeui	r2,r2,15
    31f4:	1001021e 	bne	r2,zero,3600 <_dtoa_r+0x758>
    31f8:	80010126 	beq	r16,zero,3600 <_dtoa_r+0x758>
    31fc:	d9000417 	ldw	r4,16(sp)
    3200:	01038b0e 	bge	zero,r4,4030 <_dtoa_r+0x1188>
    3204:	208003cc 	andi	r2,r4,15
    3208:	100690fa 	slli	r3,r2,3
    320c:	2029d13a 	srai	r20,r4,4
    3210:	00800074 	movhi	r2,1
    3214:	10806904 	addi	r2,r2,420
    3218:	10c5883a 	add	r2,r2,r3
    321c:	a0c0040c 	andi	r3,r20,16
    3220:	12800017 	ldw	r10,0(r2)
    3224:	12400117 	ldw	r9,4(r2)
    3228:	18032c26 	beq	r3,zero,3edc <_dtoa_r+0x1034>
    322c:	00800074 	movhi	r2,1
    3230:	10805f04 	addi	r2,r2,380
    3234:	11800817 	ldw	r6,32(r2)
    3238:	11c00917 	ldw	r7,36(r2)
    323c:	9809883a 	mov	r4,r19
    3240:	880b883a 	mov	r5,r17
    3244:	da400e15 	stw	r9,56(sp)
    3248:	da800d15 	stw	r10,52(sp)
    324c:	000bd2c0 	call	bd2c <__divdf3>
    3250:	da800d17 	ldw	r10,52(sp)
    3254:	da400e17 	ldw	r9,56(sp)
    3258:	a50003cc 	andi	r20,r20,15
    325c:	d8800c15 	stw	r2,48(sp)
    3260:	1825883a 	mov	r18,r3
    3264:	054000c4 	movi	r21,3
    3268:	a0001126 	beq	r20,zero,32b0 <_dtoa_r+0x408>
    326c:	04000074 	movhi	r16,1
    3270:	84005f04 	addi	r16,r16,380
    3274:	5009883a 	mov	r4,r10
    3278:	480b883a 	mov	r5,r9
    327c:	a180004c 	andi	r6,r20,1
    3280:	30000626 	beq	r6,zero,329c <_dtoa_r+0x3f4>
    3284:	81800017 	ldw	r6,0(r16)
    3288:	81c00117 	ldw	r7,4(r16)
    328c:	ad400044 	addi	r21,r21,1
    3290:	000c8080 	call	c808 <__muldf3>
    3294:	1009883a 	mov	r4,r2
    3298:	180b883a 	mov	r5,r3
    329c:	a029d07a 	srai	r20,r20,1
    32a0:	84000204 	addi	r16,r16,8
    32a4:	a03ff51e 	bne	r20,zero,327c <_dtoa_r+0x3d4>
    32a8:	2015883a 	mov	r10,r4
    32ac:	2813883a 	mov	r9,r5
    32b0:	d9000c17 	ldw	r4,48(sp)
    32b4:	900b883a 	mov	r5,r18
    32b8:	500d883a 	mov	r6,r10
    32bc:	480f883a 	mov	r7,r9
    32c0:	000bd2c0 	call	bd2c <__divdf3>
    32c4:	1021883a 	mov	r16,r2
    32c8:	1825883a 	mov	r18,r3
    32cc:	d8800917 	ldw	r2,36(sp)
    32d0:	10000626 	beq	r2,zero,32ec <_dtoa_r+0x444>
    32d4:	000d883a 	mov	r6,zero
    32d8:	01cffc34 	movhi	r7,16368
    32dc:	8009883a 	mov	r4,r16
    32e0:	900b883a 	mov	r5,r18
    32e4:	000c7140 	call	c714 <__ledf2>
    32e8:	10044416 	blt	r2,zero,43fc <_dtoa_r+0x1554>
    32ec:	a809883a 	mov	r4,r21
    32f0:	000d8340 	call	d834 <__floatsidf>
    32f4:	800d883a 	mov	r6,r16
    32f8:	900f883a 	mov	r7,r18
    32fc:	1009883a 	mov	r4,r2
    3300:	180b883a 	mov	r5,r3
    3304:	000c8080 	call	c808 <__muldf3>
    3308:	000d883a 	mov	r6,zero
    330c:	01d00734 	movhi	r7,16412
    3310:	1009883a 	mov	r4,r2
    3314:	180b883a 	mov	r5,r3
    3318:	000b4300 	call	b430 <__adddf3>
    331c:	1029883a 	mov	r20,r2
    3320:	00bf3034 	movhi	r2,64704
    3324:	1885883a 	add	r2,r3,r2
    3328:	d8800c15 	stw	r2,48(sp)
    332c:	d8800517 	ldw	r2,20(sp)
    3330:	10032226 	beq	r2,zero,3fbc <_dtoa_r+0x1114>
    3334:	d8800417 	ldw	r2,16(sp)
    3338:	d8801115 	stw	r2,68(sp)
    333c:	d8800517 	ldw	r2,20(sp)
    3340:	d8800d15 	stw	r2,52(sp)
    3344:	d8800d17 	ldw	r2,52(sp)
    3348:	900b883a 	mov	r5,r18
    334c:	8009883a 	mov	r4,r16
    3350:	10bfffc4 	addi	r2,r2,-1
    3354:	100690fa 	slli	r3,r2,3
    3358:	00800074 	movhi	r2,1
    335c:	10806904 	addi	r2,r2,420
    3360:	10c5883a 	add	r2,r2,r3
    3364:	12800017 	ldw	r10,0(r2)
    3368:	12c00117 	ldw	r11,4(r2)
    336c:	da800f15 	stw	r10,60(sp)
    3370:	dac00e15 	stw	r11,56(sp)
    3374:	000d7a80 	call	d7a8 <__fixdfsi>
    3378:	1009883a 	mov	r4,r2
    337c:	10800c04 	addi	r2,r2,48
    3380:	d8801015 	stw	r2,64(sp)
    3384:	000d8340 	call	d834 <__floatsidf>
    3388:	8009883a 	mov	r4,r16
    338c:	100d883a 	mov	r6,r2
    3390:	180f883a 	mov	r7,r3
    3394:	900b883a 	mov	r5,r18
    3398:	000ce880 	call	ce88 <__subdf3>
    339c:	d9000117 	ldw	r4,4(sp)
    33a0:	dac00e17 	ldw	r11,56(sp)
    33a4:	da800f17 	ldw	r10,60(sp)
    33a8:	1825883a 	mov	r18,r3
    33ac:	d8c00717 	ldw	r3,28(sp)
    33b0:	25400044 	addi	r21,r4,1
    33b4:	1021883a 	mov	r16,r2
    33b8:	500d883a 	mov	r6,r10
    33bc:	580f883a 	mov	r7,r11
    33c0:	1803b626 	beq	r3,zero,429c <_dtoa_r+0x13f4>
    33c4:	0009883a 	mov	r4,zero
    33c8:	014ff834 	movhi	r5,16352
    33cc:	000bd2c0 	call	bd2c <__divdf3>
    33d0:	d9c00c17 	ldw	r7,48(sp)
    33d4:	a00d883a 	mov	r6,r20
    33d8:	1009883a 	mov	r4,r2
    33dc:	180b883a 	mov	r5,r3
    33e0:	000ce880 	call	ce88 <__subdf3>
    33e4:	d9000117 	ldw	r4,4(sp)
    33e8:	1029883a 	mov	r20,r2
    33ec:	d8801017 	ldw	r2,64(sp)
    33f0:	800d883a 	mov	r6,r16
    33f4:	900f883a 	mov	r7,r18
    33f8:	20800005 	stb	r2,0(r4)
    33fc:	180b883a 	mov	r5,r3
    3400:	a009883a 	mov	r4,r20
    3404:	d8c00c15 	stw	r3,48(sp)
    3408:	000c6200 	call	c620 <__gedf2>
    340c:	0083e716 	blt	zero,r2,43ac <_dtoa_r+0x1504>
    3410:	0005883a 	mov	r2,zero
    3414:	dd800e15 	stw	r22,56(sp)
    3418:	dc400f15 	stw	r17,60(sp)
    341c:	dd800d17 	ldw	r22,52(sp)
    3420:	dc400c17 	ldw	r17,48(sp)
    3424:	ddc00d15 	stw	r23,52(sp)
    3428:	dcc00c15 	stw	r19,48(sp)
    342c:	1027883a 	mov	r19,r2
    3430:	00002606 	br	34cc <_dtoa_r+0x624>
    3434:	9cc00044 	addi	r19,r19,1
    3438:	9d806d0e 	bge	r19,r22,35f0 <_dtoa_r+0x748>
    343c:	a009883a 	mov	r4,r20
    3440:	880b883a 	mov	r5,r17
    3444:	000d883a 	mov	r6,zero
    3448:	01d00934 	movhi	r7,16420
    344c:	000c8080 	call	c808 <__muldf3>
    3450:	000d883a 	mov	r6,zero
    3454:	01d00934 	movhi	r7,16420
    3458:	8009883a 	mov	r4,r16
    345c:	900b883a 	mov	r5,r18
    3460:	1029883a 	mov	r20,r2
    3464:	1823883a 	mov	r17,r3
    3468:	000c8080 	call	c808 <__muldf3>
    346c:	180b883a 	mov	r5,r3
    3470:	1009883a 	mov	r4,r2
    3474:	1821883a 	mov	r16,r3
    3478:	1025883a 	mov	r18,r2
    347c:	000d7a80 	call	d7a8 <__fixdfsi>
    3480:	1009883a 	mov	r4,r2
    3484:	102f883a 	mov	r23,r2
    3488:	000d8340 	call	d834 <__floatsidf>
    348c:	9009883a 	mov	r4,r18
    3490:	800b883a 	mov	r5,r16
    3494:	100d883a 	mov	r6,r2
    3498:	180f883a 	mov	r7,r3
    349c:	000ce880 	call	ce88 <__subdf3>
    34a0:	ad400044 	addi	r21,r21,1
    34a4:	ba000c04 	addi	r8,r23,48
    34a8:	aa3fffc5 	stb	r8,-1(r21)
    34ac:	a00d883a 	mov	r6,r20
    34b0:	880f883a 	mov	r7,r17
    34b4:	1009883a 	mov	r4,r2
    34b8:	180b883a 	mov	r5,r3
    34bc:	1021883a 	mov	r16,r2
    34c0:	1825883a 	mov	r18,r3
    34c4:	000c7140 	call	c714 <__ledf2>
    34c8:	10040516 	blt	r2,zero,44e0 <_dtoa_r+0x1638>
    34cc:	800d883a 	mov	r6,r16
    34d0:	900f883a 	mov	r7,r18
    34d4:	0009883a 	mov	r4,zero
    34d8:	014ffc34 	movhi	r5,16368
    34dc:	000ce880 	call	ce88 <__subdf3>
    34e0:	a00d883a 	mov	r6,r20
    34e4:	880f883a 	mov	r7,r17
    34e8:	1009883a 	mov	r4,r2
    34ec:	180b883a 	mov	r5,r3
    34f0:	000c7140 	call	c714 <__ledf2>
    34f4:	103fcf0e 	bge	r2,zero,3434 <_dtoa_r+0x58c>
    34f8:	d8801117 	ldw	r2,68(sp)
    34fc:	ddc00d17 	ldw	r23,52(sp)
    3500:	d9000117 	ldw	r4,4(sp)
    3504:	10800044 	addi	r2,r2,1
    3508:	d8800415 	stw	r2,16(sp)
    350c:	a829883a 	mov	r20,r21
    3510:	00000106 	br	3518 <_dtoa_r+0x670>
    3514:	a103da26 	beq	r20,r4,4480 <_dtoa_r+0x15d8>
    3518:	a0ffffc3 	ldbu	r3,-1(r20)
    351c:	a02b883a 	mov	r21,r20
    3520:	a53fffc4 	addi	r20,r20,-1
    3524:	18803fcc 	andi	r2,r3,255
    3528:	1080201c 	xori	r2,r2,128
    352c:	10bfe004 	addi	r2,r2,-128
    3530:	10800e60 	cmpeqi	r2,r2,57
    3534:	103ff71e 	bne	r2,zero,3514 <_dtoa_r+0x66c>
    3538:	18c00044 	addi	r3,r3,1
    353c:	a0c00005 	stb	r3,0(r20)
    3540:	00013f06 	br	3a40 <_dtoa_r+0xb98>
    3544:	04600034 	movhi	r17,32768
    3548:	8c7fffc4 	addi	r17,r17,-1
    354c:	9462703a 	and	r17,r18,r17
    3550:	00800044 	movi	r2,1
    3554:	8825883a 	mov	r18,r17
    3558:	80800015 	stw	r2,0(r16)
    355c:	00dffc34 	movhi	r3,32752
    3560:	909ffc2c 	andhi	r2,r18,32752
    3564:	10fe731e 	bne	r2,r3,2f34 <_dtoa_r+0x8c>
    3568:	d9001f17 	ldw	r4,124(sp)
    356c:	00800434 	movhi	r2,16
    3570:	10bfffc4 	addi	r2,r2,-1
    3574:	9084703a 	and	r2,r18,r2
    3578:	00c9c3c4 	movi	r3,9999
    357c:	20c00015 	stw	r3,0(r4)
    3580:	14e6b03a 	or	r19,r2,r19
    3584:	9800141e 	bne	r19,zero,35d8 <_dtoa_r+0x730>
    3588:	d8802117 	ldw	r2,132(sp)
    358c:	10041226 	beq	r2,zero,45d8 <_dtoa_r+0x1730>
    3590:	00800074 	movhi	r2,1
    3594:	1007883a 	mov	r3,r2
    3598:	18c02a04 	addi	r3,r3,168
    359c:	00800074 	movhi	r2,1
    35a0:	d8c00115 	stw	r3,4(sp)
    35a4:	10802c04 	addi	r2,r2,176
    35a8:	d8c02117 	ldw	r3,132(sp)
    35ac:	18800015 	stw	r2,0(r3)
    35b0:	003e7206 	br	2f7c <_dtoa_r+0xd4>
    35b4:	01400434 	movhi	r5,16
    35b8:	297fffc4 	addi	r5,r5,-1
    35bc:	894a703a 	and	r5,r17,r5
    35c0:	dd001217 	ldw	r20,72(sp)
    35c4:	9809883a 	mov	r4,r19
    35c8:	294ffc34 	orhi	r5,r5,16368
    35cc:	843f0044 	addi	r16,r16,-1023
    35d0:	d8000a15 	stw	zero,40(sp)
    35d4:	003e9306 	br	3024 <_dtoa_r+0x17c>
    35d8:	d8802117 	ldw	r2,132(sp)
    35dc:	1001fe1e 	bne	r2,zero,3dd8 <_dtoa_r+0xf30>
    35e0:	00800074 	movhi	r2,1
    35e4:	10802904 	addi	r2,r2,164
    35e8:	d8800115 	stw	r2,4(sp)
    35ec:	003e6306 	br	2f7c <_dtoa_r+0xd4>
    35f0:	dd800e17 	ldw	r22,56(sp)
    35f4:	ddc00d17 	ldw	r23,52(sp)
    35f8:	dc400f17 	ldw	r17,60(sp)
    35fc:	dcc00c17 	ldw	r19,48(sp)
    3600:	d8801317 	ldw	r2,76(sp)
    3604:	10006e16 	blt	r2,zero,37c0 <_dtoa_r+0x918>
    3608:	d9000417 	ldw	r4,16(sp)
    360c:	20c003c8 	cmpgei	r3,r4,15
    3610:	18006b1e 	bne	r3,zero,37c0 <_dtoa_r+0x918>
    3614:	200690fa 	slli	r3,r4,3
    3618:	00800074 	movhi	r2,1
    361c:	10806904 	addi	r2,r2,420
    3620:	10c5883a 	add	r2,r2,r3
    3624:	14000017 	ldw	r16,0(r2)
    3628:	14800117 	ldw	r18,4(r2)
    362c:	d8801e17 	ldw	r2,120(sp)
    3630:	1000150e 	bge	r2,zero,3688 <_dtoa_r+0x7e0>
    3634:	d8800517 	ldw	r2,20(sp)
    3638:	00801316 	blt	zero,r2,3688 <_dtoa_r+0x7e0>
    363c:	d8800517 	ldw	r2,20(sp)
    3640:	1002721e 	bne	r2,zero,400c <_dtoa_r+0x1164>
    3644:	8009883a 	mov	r4,r16
    3648:	000d883a 	mov	r6,zero
    364c:	01d00534 	movhi	r7,16404
    3650:	900b883a 	mov	r5,r18
    3654:	000c8080 	call	c808 <__muldf3>
    3658:	100d883a 	mov	r6,r2
    365c:	180f883a 	mov	r7,r3
    3660:	9809883a 	mov	r4,r19
    3664:	880b883a 	mov	r5,r17
    3668:	000c7140 	call	c714 <__ledf2>
    366c:	0029883a 	mov	r20,zero
    3670:	0021883a 	mov	r16,zero
    3674:	00820216 	blt	zero,r2,3e80 <_dtoa_r+0xfd8>
    3678:	d8801e17 	ldw	r2,120(sp)
    367c:	dd400117 	ldw	r21,4(sp)
    3680:	00a2303a 	nor	r17,zero,r2
    3684:	00020406 	br	3e98 <_dtoa_r+0xff0>
    3688:	800d883a 	mov	r6,r16
    368c:	900f883a 	mov	r7,r18
    3690:	9809883a 	mov	r4,r19
    3694:	880b883a 	mov	r5,r17
    3698:	000bd2c0 	call	bd2c <__divdf3>
    369c:	180b883a 	mov	r5,r3
    36a0:	1009883a 	mov	r4,r2
    36a4:	000d7a80 	call	d7a8 <__fixdfsi>
    36a8:	1009883a 	mov	r4,r2
    36ac:	102b883a 	mov	r21,r2
    36b0:	000d8340 	call	d834 <__floatsidf>
    36b4:	800d883a 	mov	r6,r16
    36b8:	900f883a 	mov	r7,r18
    36bc:	1009883a 	mov	r4,r2
    36c0:	180b883a 	mov	r5,r3
    36c4:	000c8080 	call	c808 <__muldf3>
    36c8:	100d883a 	mov	r6,r2
    36cc:	9809883a 	mov	r4,r19
    36d0:	880b883a 	mov	r5,r17
    36d4:	180f883a 	mov	r7,r3
    36d8:	000ce880 	call	ce88 <__subdf3>
    36dc:	d9800117 	ldw	r6,4(sp)
    36e0:	dd800517 	ldw	r22,20(sp)
    36e4:	1009883a 	mov	r4,r2
    36e8:	a8800c04 	addi	r2,r21,48
    36ec:	30800005 	stb	r2,0(r6)
    36f0:	b0800060 	cmpeqi	r2,r22,1
    36f4:	180b883a 	mov	r5,r3
    36f8:	35000044 	addi	r20,r6,1
    36fc:	10029f1e 	bne	r2,zero,417c <_dtoa_r+0x12d4>
    3700:	04400044 	movi	r17,1
    3704:	ddc00215 	stw	r23,8(sp)
    3708:	00001c06 	br	377c <_dtoa_r+0x8d4>
    370c:	800d883a 	mov	r6,r16
    3710:	900f883a 	mov	r7,r18
    3714:	a809883a 	mov	r4,r21
    3718:	980b883a 	mov	r5,r19
    371c:	000bd2c0 	call	bd2c <__divdf3>
    3720:	180b883a 	mov	r5,r3
    3724:	1009883a 	mov	r4,r2
    3728:	000d7a80 	call	d7a8 <__fixdfsi>
    372c:	1009883a 	mov	r4,r2
    3730:	102f883a 	mov	r23,r2
    3734:	000d8340 	call	d834 <__floatsidf>
    3738:	800d883a 	mov	r6,r16
    373c:	900f883a 	mov	r7,r18
    3740:	1009883a 	mov	r4,r2
    3744:	180b883a 	mov	r5,r3
    3748:	000c8080 	call	c808 <__muldf3>
    374c:	a809883a 	mov	r4,r21
    3750:	980b883a 	mov	r5,r19
    3754:	100d883a 	mov	r6,r2
    3758:	180f883a 	mov	r7,r3
    375c:	000ce880 	call	ce88 <__subdf3>
    3760:	b9000c04 	addi	r4,r23,48
    3764:	a1000005 	stb	r4,0(r20)
    3768:	8c400044 	addi	r17,r17,1
    376c:	a5000044 	addi	r20,r20,1
    3770:	1009883a 	mov	r4,r2
    3774:	180b883a 	mov	r5,r3
    3778:	8d827e26 	beq	r17,r22,4174 <_dtoa_r+0x12cc>
    377c:	000d883a 	mov	r6,zero
    3780:	01d00934 	movhi	r7,16420
    3784:	000c8080 	call	c808 <__muldf3>
    3788:	000d883a 	mov	r6,zero
    378c:	000f883a 	mov	r7,zero
    3790:	1009883a 	mov	r4,r2
    3794:	180b883a 	mov	r5,r3
    3798:	102b883a 	mov	r21,r2
    379c:	1827883a 	mov	r19,r3
    37a0:	000c5940 	call	c594 <__eqdf2>
    37a4:	103fd91e 	bne	r2,zero,370c <_dtoa_r+0x864>
    37a8:	d8800417 	ldw	r2,16(sp)
    37ac:	ddc00217 	ldw	r23,8(sp)
    37b0:	a02b883a 	mov	r21,r20
    37b4:	10800044 	addi	r2,r2,1
    37b8:	d8800415 	stw	r2,16(sp)
    37bc:	0000a006 	br	3a40 <_dtoa_r+0xb98>
    37c0:	d8c00717 	ldw	r3,28(sp)
    37c4:	1800e326 	beq	r3,zero,3b54 <_dtoa_r+0xcac>
    37c8:	d8c00217 	ldw	r3,8(sp)
    37cc:	18c00088 	cmpgei	r3,r3,2
    37d0:	1801e026 	beq	r3,zero,3f54 <_dtoa_r+0x10ac>
    37d4:	d8800517 	ldw	r2,20(sp)
    37d8:	153fffc4 	addi	r20,r2,-1
    37dc:	d8800817 	ldw	r2,32(sp)
    37e0:	1501bc0e 	bge	r2,r20,3ed4 <_dtoa_r+0x102c>
    37e4:	d8800817 	ldw	r2,32(sp)
    37e8:	d8c00317 	ldw	r3,12(sp)
    37ec:	dd000815 	stw	r20,32(sp)
    37f0:	a085c83a 	sub	r2,r20,r2
    37f4:	1885883a 	add	r2,r3,r2
    37f8:	d8800315 	stw	r2,12(sp)
    37fc:	0029883a 	mov	r20,zero
    3800:	d8800517 	ldw	r2,20(sp)
    3804:	10028b16 	blt	r2,zero,4234 <_dtoa_r+0x138c>
    3808:	d8c00617 	ldw	r3,24(sp)
    380c:	b0ad883a 	add	r22,r22,r2
    3810:	1885883a 	add	r2,r3,r2
    3814:	1825883a 	mov	r18,r3
    3818:	d8800615 	stw	r2,24(sp)
    381c:	01400044 	movi	r5,1
    3820:	b809883a 	mov	r4,r23
    3824:	00069e40 	call	69e4 <__i2b>
    3828:	1021883a 	mov	r16,r2
    382c:	0480080e 	bge	zero,r18,3850 <_dtoa_r+0x9a8>
    3830:	0580070e 	bge	zero,r22,3850 <_dtoa_r+0x9a8>
    3834:	9005883a 	mov	r2,r18
    3838:	b4819e16 	blt	r22,r18,3eb4 <_dtoa_r+0x100c>
    383c:	d8c00617 	ldw	r3,24(sp)
    3840:	90a5c83a 	sub	r18,r18,r2
    3844:	b0adc83a 	sub	r22,r22,r2
    3848:	1887c83a 	sub	r3,r3,r2
    384c:	d8c00615 	stw	r3,24(sp)
    3850:	d8800817 	ldw	r2,32(sp)
    3854:	10001426 	beq	r2,zero,38a8 <_dtoa_r+0xa00>
    3858:	d8800717 	ldw	r2,28(sp)
    385c:	1001ee26 	beq	r2,zero,4018 <_dtoa_r+0x1170>
    3860:	05000e0e 	bge	zero,r20,389c <_dtoa_r+0x9f4>
    3864:	800b883a 	mov	r5,r16
    3868:	a00d883a 	mov	r6,r20
    386c:	b809883a 	mov	r4,r23
    3870:	0006d000 	call	6d00 <__pow5mult>
    3874:	e00d883a 	mov	r6,fp
    3878:	100b883a 	mov	r5,r2
    387c:	b809883a 	mov	r4,r23
    3880:	1021883a 	mov	r16,r2
    3884:	0006aa00 	call	6aa0 <__multiply>
    3888:	102b883a 	mov	r21,r2
    388c:	e00b883a 	mov	r5,fp
    3890:	b809883a 	mov	r4,r23
    3894:	00066000 	call	6600 <_Bfree>
    3898:	a839883a 	mov	fp,r21
    389c:	d8800817 	ldw	r2,32(sp)
    38a0:	150dc83a 	sub	r6,r2,r20
    38a4:	15025e1e 	bne	r2,r20,4220 <_dtoa_r+0x1378>
    38a8:	01400044 	movi	r5,1
    38ac:	b809883a 	mov	r4,r23
    38b0:	00069e40 	call	69e4 <__i2b>
    38b4:	d9800317 	ldw	r6,12(sp)
    38b8:	1029883a 	mov	r20,r2
    38bc:	0180b716 	blt	zero,r6,3b9c <_dtoa_r+0xcf4>
    38c0:	d8800217 	ldw	r2,8(sp)
    38c4:	10800088 	cmpgei	r2,r2,2
    38c8:	10014d26 	beq	r2,zero,3e00 <_dtoa_r+0xf58>
    38cc:	0023883a 	mov	r17,zero
    38d0:	d8c00317 	ldw	r3,12(sp)
    38d4:	00800044 	movi	r2,1
    38d8:	1800b81e 	bne	r3,zero,3bbc <_dtoa_r+0xd14>
    38dc:	1585883a 	add	r2,r2,r22
    38e0:	108007cc 	andi	r2,r2,31
    38e4:	1000a526 	beq	r2,zero,3b7c <_dtoa_r+0xcd4>
    38e8:	00c00804 	movi	r3,32
    38ec:	1887c83a 	sub	r3,r3,r2
    38f0:	19000150 	cmplti	r4,r3,5
    38f4:	20033c1e 	bne	r4,zero,45e8 <_dtoa_r+0x1740>
    38f8:	00c00704 	movi	r3,28
    38fc:	1885c83a 	sub	r2,r3,r2
    3900:	d8c00617 	ldw	r3,24(sp)
    3904:	90a5883a 	add	r18,r18,r2
    3908:	b0ad883a 	add	r22,r22,r2
    390c:	1887883a 	add	r3,r3,r2
    3910:	d8c00615 	stw	r3,24(sp)
    3914:	d8800617 	ldw	r2,24(sp)
    3918:	00809216 	blt	zero,r2,3b64 <_dtoa_r+0xcbc>
    391c:	0580050e 	bge	zero,r22,3934 <_dtoa_r+0xa8c>
    3920:	a00b883a 	mov	r5,r20
    3924:	b00d883a 	mov	r6,r22
    3928:	b809883a 	mov	r4,r23
    392c:	0006e540 	call	6e54 <__lshift>
    3930:	1029883a 	mov	r20,r2
    3934:	d8800917 	ldw	r2,36(sp)
    3938:	1001151e 	bne	r2,zero,3d90 <_dtoa_r+0xee8>
    393c:	d8800517 	ldw	r2,20(sp)
    3940:	0081020e 	bge	zero,r2,3d4c <_dtoa_r+0xea4>
    3944:	d8800717 	ldw	r2,28(sp)
    3948:	1000af1e 	bne	r2,zero,3c08 <_dtoa_r+0xd60>
    394c:	d8800417 	ldw	r2,16(sp)
    3950:	10800044 	addi	r2,r2,1
    3954:	d8800415 	stw	r2,16(sp)
    3958:	dc800517 	ldw	r18,20(sp)
    395c:	dd400117 	ldw	r21,4(sp)
    3960:	04400044 	movi	r17,1
    3964:	00000706 	br	3984 <_dtoa_r+0xadc>
    3968:	e00b883a 	mov	r5,fp
    396c:	000f883a 	mov	r7,zero
    3970:	01800284 	movi	r6,10
    3974:	b809883a 	mov	r4,r23
    3978:	00066300 	call	6630 <__multadd>
    397c:	1039883a 	mov	fp,r2
    3980:	8c400044 	addi	r17,r17,1
    3984:	a00b883a 	mov	r5,r20
    3988:	e009883a 	mov	r4,fp
    398c:	0002ca00 	call	2ca0 <quorem>
    3990:	14c00c04 	addi	r19,r2,48
    3994:	ac45883a 	add	r2,r21,r17
    3998:	14ffffc5 	stb	r19,-1(r2)
    399c:	8cbff216 	blt	r17,r18,3968 <_dtoa_r+0xac0>
    39a0:	d8800517 	ldw	r2,20(sp)
    39a4:	0081510e 	bge	zero,r2,3eec <_dtoa_r+0x1044>
    39a8:	d8c00117 	ldw	r3,4(sp)
    39ac:	0023883a 	mov	r17,zero
    39b0:	18ab883a 	add	r21,r3,r2
    39b4:	e00b883a 	mov	r5,fp
    39b8:	01800044 	movi	r6,1
    39bc:	b809883a 	mov	r4,r23
    39c0:	0006e540 	call	6e54 <__lshift>
    39c4:	1009883a 	mov	r4,r2
    39c8:	a00b883a 	mov	r5,r20
    39cc:	1039883a 	mov	fp,r2
    39d0:	0006fe80 	call	6fe8 <__mcmp>
    39d4:	a93fffc3 	ldbu	r4,-1(r21)
    39d8:	0081490e 	bge	zero,r2,3f00 <_dtoa_r+0x1058>
    39dc:	d9400117 	ldw	r5,4(sp)
    39e0:	00000306 	br	39f0 <_dtoa_r+0xb48>
    39e4:	19415426 	beq	r3,r5,3f38 <_dtoa_r+0x1090>
    39e8:	193fffc3 	ldbu	r4,-1(r3)
    39ec:	182b883a 	mov	r21,r3
    39f0:	20803fcc 	andi	r2,r4,255
    39f4:	1080201c 	xori	r2,r2,128
    39f8:	10bfe004 	addi	r2,r2,-128
    39fc:	10800e60 	cmpeqi	r2,r2,57
    3a00:	a8ffffc4 	addi	r3,r21,-1
    3a04:	103ff71e 	bne	r2,zero,39e4 <_dtoa_r+0xb3c>
    3a08:	21000044 	addi	r4,r4,1
    3a0c:	19000005 	stb	r4,0(r3)
    3a10:	a00b883a 	mov	r5,r20
    3a14:	b809883a 	mov	r4,r23
    3a18:	00066000 	call	6600 <_Bfree>
    3a1c:	80000826 	beq	r16,zero,3a40 <_dtoa_r+0xb98>
    3a20:	88000426 	beq	r17,zero,3a34 <_dtoa_r+0xb8c>
    3a24:	8c000326 	beq	r17,r16,3a34 <_dtoa_r+0xb8c>
    3a28:	880b883a 	mov	r5,r17
    3a2c:	b809883a 	mov	r4,r23
    3a30:	00066000 	call	6600 <_Bfree>
    3a34:	800b883a 	mov	r5,r16
    3a38:	b809883a 	mov	r4,r23
    3a3c:	00066000 	call	6600 <_Bfree>
    3a40:	e00b883a 	mov	r5,fp
    3a44:	b809883a 	mov	r4,r23
    3a48:	00066000 	call	6600 <_Bfree>
    3a4c:	d8801f17 	ldw	r2,124(sp)
    3a50:	d8c00417 	ldw	r3,16(sp)
    3a54:	a8000005 	stb	zero,0(r21)
    3a58:	10c00015 	stw	r3,0(r2)
    3a5c:	d8802117 	ldw	r2,132(sp)
    3a60:	103d4626 	beq	r2,zero,2f7c <_dtoa_r+0xd4>
    3a64:	15400015 	stw	r21,0(r2)
    3a68:	003d4406 	br	2f7c <_dtoa_r+0xd4>
    3a6c:	d8000915 	stw	zero,36(sp)
    3a70:	b0002416 	blt	r22,zero,3b04 <_dtoa_r+0xc5c>
    3a74:	d8000615 	stw	zero,24(sp)
    3a78:	d8800317 	ldw	r2,12(sp)
    3a7c:	d8c00217 	ldw	r3,8(sp)
    3a80:	d8000815 	stw	zero,32(sp)
    3a84:	b0ad883a 	add	r22,r22,r2
    3a88:	d8800415 	stw	r2,16(sp)
    3a8c:	188002a8 	cmpgeui	r2,r3,10
    3a90:	103db326 	beq	r2,zero,3160 <_dtoa_r+0x2b8>
    3a94:	00800044 	movi	r2,1
    3a98:	d8800715 	stw	r2,28(sp)
    3a9c:	00bfffc4 	movi	r2,-1
    3aa0:	04000044 	movi	r16,1
    3aa4:	d8000215 	stw	zero,8(sp)
    3aa8:	d8800515 	stw	r2,20(sp)
    3aac:	d8001e15 	stw	zero,120(sp)
    3ab0:	d8800517 	ldw	r2,20(sp)
    3ab4:	b8001115 	stw	zero,68(r23)
    3ab8:	000b883a 	mov	r5,zero
    3abc:	d8800b15 	stw	r2,44(sp)
    3ac0:	003dc406 	br	31d4 <_dtoa_r+0x32c>
    3ac4:	188000e0 	cmpeqi	r2,r3,3
    3ac8:	d8000715 	stw	zero,28(sp)
    3acc:	1002ac26 	beq	r2,zero,4580 <_dtoa_r+0x16d8>
    3ad0:	d8801e17 	ldw	r2,120(sp)
    3ad4:	d8c00417 	ldw	r3,16(sp)
    3ad8:	10c5883a 	add	r2,r2,r3
    3adc:	d8800b15 	stw	r2,44(sp)
    3ae0:	10800044 	addi	r2,r2,1
    3ae4:	d8800515 	stw	r2,20(sp)
    3ae8:	100d883a 	mov	r6,r2
    3aec:	00bdae16 	blt	zero,r2,31a8 <_dtoa_r+0x300>
    3af0:	01800044 	movi	r6,1
    3af4:	003dac06 	br	31a8 <_dtoa_r+0x300>
    3af8:	00800044 	movi	r2,1
    3afc:	d8800915 	stw	r2,36(sp)
    3b00:	b03d890e 	bge	r22,zero,3128 <_dtoa_r+0x280>
    3b04:	00800044 	movi	r2,1
    3b08:	1405c83a 	sub	r2,r2,r16
    3b0c:	d8800615 	stw	r2,24(sp)
    3b10:	002d883a 	mov	r22,zero
    3b14:	003d8506 	br	312c <_dtoa_r+0x284>
    3b18:	a809883a 	mov	r4,r21
    3b1c:	000d8340 	call	d834 <__floatsidf>
    3b20:	900d883a 	mov	r6,r18
    3b24:	b00f883a 	mov	r7,r22
    3b28:	1009883a 	mov	r4,r2
    3b2c:	180b883a 	mov	r5,r3
    3b30:	000c5940 	call	c594 <__eqdf2>
    3b34:	103d6926 	beq	r2,zero,30dc <_dtoa_r+0x234>
    3b38:	a8bfffc4 	addi	r2,r21,-1
    3b3c:	d8800315 	stw	r2,12(sp)
    3b40:	003d6606 	br	30dc <_dtoa_r+0x234>
    3b44:	00800074 	movhi	r2,1
    3b48:	10802004 	addi	r2,r2,128
    3b4c:	d8800115 	stw	r2,4(sp)
    3b50:	003d0a06 	br	2f7c <_dtoa_r+0xd4>
    3b54:	dd000817 	ldw	r20,32(sp)
    3b58:	dc800617 	ldw	r18,24(sp)
    3b5c:	0021883a 	mov	r16,zero
    3b60:	003f3206 	br	382c <_dtoa_r+0x984>
    3b64:	e00b883a 	mov	r5,fp
    3b68:	100d883a 	mov	r6,r2
    3b6c:	b809883a 	mov	r4,r23
    3b70:	0006e540 	call	6e54 <__lshift>
    3b74:	1039883a 	mov	fp,r2
    3b78:	003f6806 	br	391c <_dtoa_r+0xa74>
    3b7c:	00800704 	movi	r2,28
    3b80:	003f5f06 	br	3900 <_dtoa_r+0xa58>
    3b84:	01000804 	movi	r4,32
    3b88:	2089c83a 	sub	r4,r4,r2
    3b8c:	9908983a 	sll	r4,r19,r4
    3b90:	003d1d06 	br	3008 <_dtoa_r+0x160>
    3b94:	04000044 	movi	r16,1
    3b98:	003d7606 	br	3174 <_dtoa_r+0x2cc>
    3b9c:	100b883a 	mov	r5,r2
    3ba0:	b809883a 	mov	r4,r23
    3ba4:	0006d000 	call	6d00 <__pow5mult>
    3ba8:	d8c00217 	ldw	r3,8(sp)
    3bac:	1029883a 	mov	r20,r2
    3bb0:	18c00090 	cmplti	r3,r3,2
    3bb4:	1801511e 	bne	r3,zero,40fc <_dtoa_r+0x1254>
    3bb8:	0023883a 	mov	r17,zero
    3bbc:	a0800417 	ldw	r2,16(r20)
    3bc0:	10800104 	addi	r2,r2,4
    3bc4:	100490ba 	slli	r2,r2,2
    3bc8:	a085883a 	add	r2,r20,r2
    3bcc:	11000017 	ldw	r4,0(r2)
    3bd0:	00068b80 	call	68b8 <__hi0bits>
    3bd4:	00c00804 	movi	r3,32
    3bd8:	1885c83a 	sub	r2,r3,r2
    3bdc:	003f3f06 	br	38dc <_dtoa_r+0xa34>
    3be0:	800b883a 	mov	r5,r16
    3be4:	000f883a 	mov	r7,zero
    3be8:	01800284 	movi	r6,10
    3bec:	b809883a 	mov	r4,r23
    3bf0:	00066300 	call	6630 <__multadd>
    3bf4:	1021883a 	mov	r16,r2
    3bf8:	d8800b17 	ldw	r2,44(sp)
    3bfc:	00824b0e 	bge	zero,r2,452c <_dtoa_r+0x1684>
    3c00:	dd400415 	stw	r21,16(sp)
    3c04:	d8800515 	stw	r2,20(sp)
    3c08:	0480ac16 	blt	zero,r18,3ebc <_dtoa_r+0x1014>
    3c0c:	8801731e 	bne	r17,zero,41dc <_dtoa_r+0x1334>
    3c10:	8025883a 	mov	r18,r16
    3c14:	dd800117 	ldw	r22,4(sp)
    3c18:	d9000517 	ldw	r4,20(sp)
    3c1c:	98c0004c 	andi	r3,r19,1
    3c20:	b0bfffc4 	addi	r2,r22,-1
    3c24:	1105883a 	add	r2,r2,r4
    3c28:	d8800515 	stw	r2,20(sp)
    3c2c:	d8800217 	ldw	r2,8(sp)
    3c30:	d8c00815 	stw	r3,32(sp)
    3c34:	1884b03a 	or	r2,r3,r2
    3c38:	d8800715 	stw	r2,28(sp)
    3c3c:	00002906 	br	3ce4 <_dtoa_r+0xe3c>
    3c40:	e009883a 	mov	r4,fp
    3c44:	0006fe80 	call	6fe8 <__mcmp>
    3c48:	980b883a 	mov	r5,r19
    3c4c:	b809883a 	mov	r4,r23
    3c50:	d8800315 	stw	r2,12(sp)
    3c54:	00066000 	call	6600 <_Bfree>
    3c58:	d8800317 	ldw	r2,12(sp)
    3c5c:	1000021e 	bne	r2,zero,3c68 <_dtoa_r+0xdc0>
    3c60:	d8c00717 	ldw	r3,28(sp)
    3c64:	18022326 	beq	r3,zero,44f4 <_dtoa_r+0x164c>
    3c68:	b4c00044 	addi	r19,r22,1
    3c6c:	88012916 	blt	r17,zero,4114 <_dtoa_r+0x126c>
    3c70:	d8c00217 	ldw	r3,8(sp)
    3c74:	88e2b03a 	or	r17,r17,r3
    3c78:	d8c00817 	ldw	r3,32(sp)
    3c7c:	1c62b03a 	or	r17,r3,r17
    3c80:	88012426 	beq	r17,zero,4114 <_dtoa_r+0x126c>
    3c84:	00816f16 	blt	zero,r2,4244 <_dtoa_r+0x139c>
    3c88:	d8800517 	ldw	r2,20(sp)
    3c8c:	b5400005 	stb	r21,0(r22)
    3c90:	15817926 	beq	r2,r22,4278 <_dtoa_r+0x13d0>
    3c94:	e00b883a 	mov	r5,fp
    3c98:	000f883a 	mov	r7,zero
    3c9c:	01800284 	movi	r6,10
    3ca0:	b809883a 	mov	r4,r23
    3ca4:	00066300 	call	6630 <__multadd>
    3ca8:	1039883a 	mov	fp,r2
    3cac:	800b883a 	mov	r5,r16
    3cb0:	000f883a 	mov	r7,zero
    3cb4:	01800284 	movi	r6,10
    3cb8:	b809883a 	mov	r4,r23
    3cbc:	84801f26 	beq	r16,r18,3d3c <_dtoa_r+0xe94>
    3cc0:	00066300 	call	6630 <__multadd>
    3cc4:	900b883a 	mov	r5,r18
    3cc8:	000f883a 	mov	r7,zero
    3ccc:	01800284 	movi	r6,10
    3cd0:	b809883a 	mov	r4,r23
    3cd4:	1021883a 	mov	r16,r2
    3cd8:	00066300 	call	6630 <__multadd>
    3cdc:	1025883a 	mov	r18,r2
    3ce0:	982d883a 	mov	r22,r19
    3ce4:	a00b883a 	mov	r5,r20
    3ce8:	e009883a 	mov	r4,fp
    3cec:	0002ca00 	call	2ca0 <quorem>
    3cf0:	800b883a 	mov	r5,r16
    3cf4:	e009883a 	mov	r4,fp
    3cf8:	102b883a 	mov	r21,r2
    3cfc:	d8800615 	stw	r2,24(sp)
    3d00:	0006fe80 	call	6fe8 <__mcmp>
    3d04:	a00b883a 	mov	r5,r20
    3d08:	900d883a 	mov	r6,r18
    3d0c:	b809883a 	mov	r4,r23
    3d10:	1023883a 	mov	r17,r2
    3d14:	00070480 	call	7048 <__mdiff>
    3d18:	1027883a 	mov	r19,r2
    3d1c:	10800317 	ldw	r2,12(r2)
    3d20:	ad400c04 	addi	r21,r21,48
    3d24:	980b883a 	mov	r5,r19
    3d28:	103fc526 	beq	r2,zero,3c40 <_dtoa_r+0xd98>
    3d2c:	b809883a 	mov	r4,r23
    3d30:	00066000 	call	6600 <_Bfree>
    3d34:	00800044 	movi	r2,1
    3d38:	003fcb06 	br	3c68 <_dtoa_r+0xdc0>
    3d3c:	00066300 	call	6630 <__multadd>
    3d40:	1021883a 	mov	r16,r2
    3d44:	1025883a 	mov	r18,r2
    3d48:	003fe506 	br	3ce0 <_dtoa_r+0xe38>
    3d4c:	d8800217 	ldw	r2,8(sp)
    3d50:	108000d0 	cmplti	r2,r2,3
    3d54:	10003e26 	beq	r2,zero,3e50 <_dtoa_r+0xfa8>
    3d58:	d8800717 	ldw	r2,28(sp)
    3d5c:	103faa1e 	bne	r2,zero,3c08 <_dtoa_r+0xd60>
    3d60:	a00b883a 	mov	r5,r20
    3d64:	e009883a 	mov	r4,fp
    3d68:	0002ca00 	call	2ca0 <quorem>
    3d6c:	14c00c04 	addi	r19,r2,48
    3d70:	d8800117 	ldw	r2,4(sp)
    3d74:	0023883a 	mov	r17,zero
    3d78:	15400044 	addi	r21,r2,1
    3d7c:	14c00005 	stb	r19,0(r2)
    3d80:	d8800417 	ldw	r2,16(sp)
    3d84:	10800044 	addi	r2,r2,1
    3d88:	d8800415 	stw	r2,16(sp)
    3d8c:	003f0906 	br	39b4 <_dtoa_r+0xb0c>
    3d90:	a00b883a 	mov	r5,r20
    3d94:	e009883a 	mov	r4,fp
    3d98:	0006fe80 	call	6fe8 <__mcmp>
    3d9c:	103ee70e 	bge	r2,zero,393c <_dtoa_r+0xa94>
    3da0:	e00b883a 	mov	r5,fp
    3da4:	000f883a 	mov	r7,zero
    3da8:	01800284 	movi	r6,10
    3dac:	b809883a 	mov	r4,r23
    3db0:	00066300 	call	6630 <__multadd>
    3db4:	d8c00417 	ldw	r3,16(sp)
    3db8:	1039883a 	mov	fp,r2
    3dbc:	d8800717 	ldw	r2,28(sp)
    3dc0:	1d7fffc4 	addi	r21,r3,-1
    3dc4:	103f861e 	bne	r2,zero,3be0 <_dtoa_r+0xd38>
    3dc8:	d8800b17 	ldw	r2,44(sp)
    3dcc:	0081d20e 	bge	zero,r2,4518 <_dtoa_r+0x1670>
    3dd0:	d8800515 	stw	r2,20(sp)
    3dd4:	003ee006 	br	3958 <_dtoa_r+0xab0>
    3dd8:	00800074 	movhi	r2,1
    3ddc:	1007883a 	mov	r3,r2
    3de0:	18c02904 	addi	r3,r3,164
    3de4:	00800074 	movhi	r2,1
    3de8:	d8c00115 	stw	r3,4(sp)
    3dec:	108029c4 	addi	r2,r2,167
    3df0:	003ded06 	br	35a8 <_dtoa_r+0x700>
    3df4:	00800044 	movi	r2,1
    3df8:	d8800715 	stw	r2,28(sp)
    3dfc:	003f3406 	br	3ad0 <_dtoa_r+0xc28>
    3e00:	983eb21e 	bne	r19,zero,38cc <_dtoa_r+0xa24>
    3e04:	00800434 	movhi	r2,16
    3e08:	10bfffc4 	addi	r2,r2,-1
    3e0c:	8884703a 	and	r2,r17,r2
    3e10:	103eae1e 	bne	r2,zero,38cc <_dtoa_r+0xa24>
    3e14:	8c5ffc2c 	andhi	r17,r17,32752
    3e18:	883eac26 	beq	r17,zero,38cc <_dtoa_r+0xa24>
    3e1c:	d8800617 	ldw	r2,24(sp)
    3e20:	b5800044 	addi	r22,r22,1
    3e24:	04400044 	movi	r17,1
    3e28:	10800044 	addi	r2,r2,1
    3e2c:	d8800615 	stw	r2,24(sp)
    3e30:	003ea706 	br	38d0 <_dtoa_r+0xa28>
    3e34:	00800044 	movi	r2,1
    3e38:	d8800515 	stw	r2,20(sp)
    3e3c:	d8801e15 	stw	r2,120(sp)
    3e40:	003f1b06 	br	3ab0 <_dtoa_r+0xc08>
    3e44:	d8800b17 	ldw	r2,44(sp)
    3e48:	dd400415 	stw	r21,16(sp)
    3e4c:	d8800515 	stw	r2,20(sp)
    3e50:	d8800517 	ldw	r2,20(sp)
    3e54:	103e081e 	bne	r2,zero,3678 <_dtoa_r+0x7d0>
    3e58:	a00b883a 	mov	r5,r20
    3e5c:	b809883a 	mov	r4,r23
    3e60:	000f883a 	mov	r7,zero
    3e64:	01800144 	movi	r6,5
    3e68:	00066300 	call	6630 <__multadd>
    3e6c:	100b883a 	mov	r5,r2
    3e70:	e009883a 	mov	r4,fp
    3e74:	1029883a 	mov	r20,r2
    3e78:	0006fe80 	call	6fe8 <__mcmp>
    3e7c:	00bdfe0e 	bge	zero,r2,3678 <_dtoa_r+0x7d0>
    3e80:	d8c00117 	ldw	r3,4(sp)
    3e84:	00800c44 	movi	r2,49
    3e88:	18800005 	stb	r2,0(r3)
    3e8c:	d8800417 	ldw	r2,16(sp)
    3e90:	1d400044 	addi	r21,r3,1
    3e94:	14400044 	addi	r17,r2,1
    3e98:	a00b883a 	mov	r5,r20
    3e9c:	b809883a 	mov	r4,r23
    3ea0:	00066000 	call	6600 <_Bfree>
    3ea4:	88800044 	addi	r2,r17,1
    3ea8:	d8800415 	stw	r2,16(sp)
    3eac:	803ee11e 	bne	r16,zero,3a34 <_dtoa_r+0xb8c>
    3eb0:	003ee306 	br	3a40 <_dtoa_r+0xb98>
    3eb4:	b005883a 	mov	r2,r22
    3eb8:	003e6006 	br	383c <_dtoa_r+0x994>
    3ebc:	800b883a 	mov	r5,r16
    3ec0:	900d883a 	mov	r6,r18
    3ec4:	b809883a 	mov	r4,r23
    3ec8:	0006e540 	call	6e54 <__lshift>
    3ecc:	1021883a 	mov	r16,r2
    3ed0:	003f4e06 	br	3c0c <_dtoa_r+0xd64>
    3ed4:	1529c83a 	sub	r20,r2,r20
    3ed8:	003e4906 	br	3800 <_dtoa_r+0x958>
    3edc:	dcc00c15 	stw	r19,48(sp)
    3ee0:	8825883a 	mov	r18,r17
    3ee4:	05400084 	movi	r21,2
    3ee8:	003cdf06 	br	3268 <_dtoa_r+0x3c0>
    3eec:	00800044 	movi	r2,1
    3ef0:	003ead06 	br	39a8 <_dtoa_r+0xb00>
    3ef4:	00800044 	movi	r2,1
    3ef8:	d8800715 	stw	r2,28(sp)
    3efc:	003ca506 	br	3194 <_dtoa_r+0x2ec>
    3f00:	1000021e 	bne	r2,zero,3f0c <_dtoa_r+0x1064>
    3f04:	98c0004c 	andi	r3,r19,1
    3f08:	183eb41e 	bne	r3,zero,39dc <_dtoa_r+0xb34>
    3f0c:	2005883a 	mov	r2,r4
    3f10:	00000206 	br	3f1c <_dtoa_r+0x1074>
    3f14:	a8bfff83 	ldbu	r2,-2(r21)
    3f18:	182b883a 	mov	r21,r3
    3f1c:	10803fcc 	andi	r2,r2,255
    3f20:	1080201c 	xori	r2,r2,128
    3f24:	10bfe004 	addi	r2,r2,-128
    3f28:	10800c18 	cmpnei	r2,r2,48
    3f2c:	a8ffffc4 	addi	r3,r21,-1
    3f30:	103ff826 	beq	r2,zero,3f14 <_dtoa_r+0x106c>
    3f34:	003eb606 	br	3a10 <_dtoa_r+0xb68>
    3f38:	d8c00117 	ldw	r3,4(sp)
    3f3c:	00800c44 	movi	r2,49
    3f40:	18800005 	stb	r2,0(r3)
    3f44:	d8800417 	ldw	r2,16(sp)
    3f48:	10800044 	addi	r2,r2,1
    3f4c:	d8800415 	stw	r2,16(sp)
    3f50:	003eaf06 	br	3a10 <_dtoa_r+0xb68>
    3f54:	d8c00a17 	ldw	r3,40(sp)
    3f58:	18011826 	beq	r3,zero,43bc <_dtoa_r+0x1514>
    3f5c:	d8c00617 	ldw	r3,24(sp)
    3f60:	10810cc4 	addi	r2,r2,1075
    3f64:	b0ad883a 	add	r22,r22,r2
    3f68:	1885883a 	add	r2,r3,r2
    3f6c:	dd000817 	ldw	r20,32(sp)
    3f70:	1825883a 	mov	r18,r3
    3f74:	d8800615 	stw	r2,24(sp)
    3f78:	003e2806 	br	381c <_dtoa_r+0x974>
    3f7c:	a809883a 	mov	r4,r21
    3f80:	000d8340 	call	d834 <__floatsidf>
    3f84:	800d883a 	mov	r6,r16
    3f88:	900f883a 	mov	r7,r18
    3f8c:	1009883a 	mov	r4,r2
    3f90:	180b883a 	mov	r5,r3
    3f94:	000c8080 	call	c808 <__muldf3>
    3f98:	000d883a 	mov	r6,zero
    3f9c:	01d00734 	movhi	r7,16412
    3fa0:	1009883a 	mov	r4,r2
    3fa4:	180b883a 	mov	r5,r3
    3fa8:	000b4300 	call	b430 <__adddf3>
    3fac:	1029883a 	mov	r20,r2
    3fb0:	00bf3034 	movhi	r2,64704
    3fb4:	1885883a 	add	r2,r3,r2
    3fb8:	d8800c15 	stw	r2,48(sp)
    3fbc:	8009883a 	mov	r4,r16
    3fc0:	900b883a 	mov	r5,r18
    3fc4:	000d883a 	mov	r6,zero
    3fc8:	01d00534 	movhi	r7,16404
    3fcc:	000ce880 	call	ce88 <__subdf3>
    3fd0:	dd400c17 	ldw	r21,48(sp)
    3fd4:	a00d883a 	mov	r6,r20
    3fd8:	1009883a 	mov	r4,r2
    3fdc:	a80f883a 	mov	r7,r21
    3fe0:	180b883a 	mov	r5,r3
    3fe4:	1025883a 	mov	r18,r2
    3fe8:	1821883a 	mov	r16,r3
    3fec:	000c6200 	call	c620 <__gedf2>
    3ff0:	00812f16 	blt	zero,r2,44b0 <_dtoa_r+0x1608>
    3ff4:	a9e0003c 	xorhi	r7,r21,32768
    3ff8:	a00d883a 	mov	r6,r20
    3ffc:	9009883a 	mov	r4,r18
    4000:	800b883a 	mov	r5,r16
    4004:	000c7140 	call	c714 <__ledf2>
    4008:	103d7d0e 	bge	r2,zero,3600 <_dtoa_r+0x758>
    400c:	0029883a 	mov	r20,zero
    4010:	0021883a 	mov	r16,zero
    4014:	003d9806 	br	3678 <_dtoa_r+0x7d0>
    4018:	d9800817 	ldw	r6,32(sp)
    401c:	e00b883a 	mov	r5,fp
    4020:	b809883a 	mov	r4,r23
    4024:	0006d000 	call	6d00 <__pow5mult>
    4028:	1039883a 	mov	fp,r2
    402c:	003e1e06 	br	38a8 <_dtoa_r+0xa00>
    4030:	d8800417 	ldw	r2,16(sp)
    4034:	1000ed26 	beq	r2,zero,43ec <_dtoa_r+0x1544>
    4038:	00a9c83a 	sub	r20,zero,r2
    403c:	a08003cc 	andi	r2,r20,15
    4040:	100690fa 	slli	r3,r2,3
    4044:	00800074 	movhi	r2,1
    4048:	10806904 	addi	r2,r2,420
    404c:	10c5883a 	add	r2,r2,r3
    4050:	11800017 	ldw	r6,0(r2)
    4054:	11c00117 	ldw	r7,4(r2)
    4058:	a029d13a 	srai	r20,r20,4
    405c:	9809883a 	mov	r4,r19
    4060:	880b883a 	mov	r5,r17
    4064:	000c8080 	call	c808 <__muldf3>
    4068:	1021883a 	mov	r16,r2
    406c:	1825883a 	mov	r18,r3
    4070:	a0013826 	beq	r20,zero,4554 <_dtoa_r+0x16ac>
    4074:	02000074 	movhi	r8,1
    4078:	05400084 	movi	r21,2
    407c:	42005f04 	addi	r8,r8,380
    4080:	1009883a 	mov	r4,r2
    4084:	9805883a 	mov	r2,r19
    4088:	180b883a 	mov	r5,r3
    408c:	dc000c15 	stw	r16,48(sp)
    4090:	8827883a 	mov	r19,r17
    4094:	0007883a 	mov	r3,zero
    4098:	a823883a 	mov	r17,r21
    409c:	4021883a 	mov	r16,r8
    40a0:	102b883a 	mov	r21,r2
    40a4:	a180004c 	andi	r6,r20,1
    40a8:	30000726 	beq	r6,zero,40c8 <_dtoa_r+0x1220>
    40ac:	81800017 	ldw	r6,0(r16)
    40b0:	81c00117 	ldw	r7,4(r16)
    40b4:	8c400044 	addi	r17,r17,1
    40b8:	000c8080 	call	c808 <__muldf3>
    40bc:	180b883a 	mov	r5,r3
    40c0:	1009883a 	mov	r4,r2
    40c4:	00c00044 	movi	r3,1
    40c8:	a029d07a 	srai	r20,r20,1
    40cc:	84000204 	addi	r16,r16,8
    40d0:	a03ff41e 	bne	r20,zero,40a4 <_dtoa_r+0x11fc>
    40d4:	a805883a 	mov	r2,r21
    40d8:	18c03fcc 	andi	r3,r3,255
    40dc:	882b883a 	mov	r21,r17
    40e0:	dc000c17 	ldw	r16,48(sp)
    40e4:	9823883a 	mov	r17,r19
    40e8:	1027883a 	mov	r19,r2
    40ec:	183c7726 	beq	r3,zero,32cc <_dtoa_r+0x424>
    40f0:	2021883a 	mov	r16,r4
    40f4:	2825883a 	mov	r18,r5
    40f8:	003c7406 	br	32cc <_dtoa_r+0x424>
    40fc:	983eae1e 	bne	r19,zero,3bb8 <_dtoa_r+0xd10>
    4100:	00800434 	movhi	r2,16
    4104:	10bfffc4 	addi	r2,r2,-1
    4108:	8884703a 	and	r2,r17,r2
    410c:	103f4126 	beq	r2,zero,3e14 <_dtoa_r+0xf6c>
    4110:	003ea906 	br	3bb8 <_dtoa_r+0xd10>
    4114:	9807883a 	mov	r3,r19
    4118:	a827883a 	mov	r19,r21
    411c:	182b883a 	mov	r21,r3
    4120:	d8c00417 	ldw	r3,16(sp)
    4124:	18c00044 	addi	r3,r3,1
    4128:	d8c00415 	stw	r3,16(sp)
    412c:	00800d0e 	bge	zero,r2,4164 <_dtoa_r+0x12bc>
    4130:	e00b883a 	mov	r5,fp
    4134:	b809883a 	mov	r4,r23
    4138:	01800044 	movi	r6,1
    413c:	0006e540 	call	6e54 <__lshift>
    4140:	a00b883a 	mov	r5,r20
    4144:	1009883a 	mov	r4,r2
    4148:	1039883a 	mov	fp,r2
    414c:	0006fe80 	call	6fe8 <__mcmp>
    4150:	0080df0e 	bge	zero,r2,44d0 <_dtoa_r+0x1628>
    4154:	98c00e60 	cmpeqi	r3,r19,57
    4158:	1800ce1e 	bne	r3,zero,4494 <_dtoa_r+0x15ec>
    415c:	d8800617 	ldw	r2,24(sp)
    4160:	14c00c44 	addi	r19,r2,49
    4164:	8023883a 	mov	r17,r16
    4168:	b4c00005 	stb	r19,0(r22)
    416c:	9021883a 	mov	r16,r18
    4170:	003e2706 	br	3a10 <_dtoa_r+0xb68>
    4174:	b82b883a 	mov	r21,r23
    4178:	ddc00217 	ldw	r23,8(sp)
    417c:	200d883a 	mov	r6,r4
    4180:	280f883a 	mov	r7,r5
    4184:	000b4300 	call	b430 <__adddf3>
    4188:	180b883a 	mov	r5,r3
    418c:	800d883a 	mov	r6,r16
    4190:	900f883a 	mov	r7,r18
    4194:	1009883a 	mov	r4,r2
    4198:	1823883a 	mov	r17,r3
    419c:	1027883a 	mov	r19,r2
    41a0:	000c6200 	call	c620 <__gedf2>
    41a4:	d8c00417 	ldw	r3,16(sp)
    41a8:	18c00044 	addi	r3,r3,1
    41ac:	d8c00415 	stw	r3,16(sp)
    41b0:	00808c16 	blt	zero,r2,43e4 <_dtoa_r+0x153c>
    41b4:	800d883a 	mov	r6,r16
    41b8:	900f883a 	mov	r7,r18
    41bc:	9809883a 	mov	r4,r19
    41c0:	880b883a 	mov	r5,r17
    41c4:	000c5940 	call	c594 <__eqdf2>
    41c8:	1000021e 	bne	r2,zero,41d4 <_dtoa_r+0x132c>
    41cc:	ad40004c 	andi	r21,r21,1
    41d0:	a800841e 	bne	r21,zero,43e4 <_dtoa_r+0x153c>
    41d4:	a02b883a 	mov	r21,r20
    41d8:	003e1906 	br	3a40 <_dtoa_r+0xb98>
    41dc:	81400117 	ldw	r5,4(r16)
    41e0:	b809883a 	mov	r4,r23
    41e4:	00065500 	call	6550 <_Balloc>
    41e8:	1023883a 	mov	r17,r2
    41ec:	1000f326 	beq	r2,zero,45bc <_dtoa_r+0x1714>
    41f0:	81800417 	ldw	r6,16(r16)
    41f4:	81400304 	addi	r5,r16,12
    41f8:	11000304 	addi	r4,r2,12
    41fc:	31800084 	addi	r6,r6,2
    4200:	300c90ba 	slli	r6,r6,2
    4204:	00004ec0 	call	4ec <memcpy>
    4208:	01800044 	movi	r6,1
    420c:	880b883a 	mov	r5,r17
    4210:	b809883a 	mov	r4,r23
    4214:	0006e540 	call	6e54 <__lshift>
    4218:	1025883a 	mov	r18,r2
    421c:	003e7d06 	br	3c14 <_dtoa_r+0xd6c>
    4220:	e00b883a 	mov	r5,fp
    4224:	b809883a 	mov	r4,r23
    4228:	0006d000 	call	6d00 <__pow5mult>
    422c:	1039883a 	mov	fp,r2
    4230:	003d9d06 	br	38a8 <_dtoa_r+0xa00>
    4234:	d8800617 	ldw	r2,24(sp)
    4238:	d8c00517 	ldw	r3,20(sp)
    423c:	10e5c83a 	sub	r18,r2,r3
    4240:	003d7606 	br	381c <_dtoa_r+0x974>
    4244:	d8c00417 	ldw	r3,16(sp)
    4248:	9805883a 	mov	r2,r19
    424c:	a827883a 	mov	r19,r21
    4250:	18c00044 	addi	r3,r3,1
    4254:	102b883a 	mov	r21,r2
    4258:	d8c00415 	stw	r3,16(sp)
    425c:	98800e58 	cmpnei	r2,r19,57
    4260:	10008c26 	beq	r2,zero,4494 <_dtoa_r+0x15ec>
    4264:	98c00044 	addi	r3,r19,1
    4268:	8023883a 	mov	r17,r16
    426c:	b0c00005 	stb	r3,0(r22)
    4270:	9021883a 	mov	r16,r18
    4274:	003de606 	br	3a10 <_dtoa_r+0xb68>
    4278:	9805883a 	mov	r2,r19
    427c:	a827883a 	mov	r19,r21
    4280:	102b883a 	mov	r21,r2
    4284:	d8800417 	ldw	r2,16(sp)
    4288:	8023883a 	mov	r17,r16
    428c:	9021883a 	mov	r16,r18
    4290:	10800044 	addi	r2,r2,1
    4294:	d8800415 	stw	r2,16(sp)
    4298:	003dc606 	br	39b4 <_dtoa_r+0xb0c>
    429c:	d9400c17 	ldw	r5,48(sp)
    42a0:	a009883a 	mov	r4,r20
    42a4:	000c8080 	call	c808 <__muldf3>
    42a8:	d9800d17 	ldw	r6,52(sp)
    42ac:	d9400117 	ldw	r5,4(sp)
    42b0:	d9001017 	ldw	r4,64(sp)
    42b4:	d8800c15 	stw	r2,48(sp)
    42b8:	d8c00d15 	stw	r3,52(sp)
    42bc:	29000005 	stb	r4,0(r5)
    42c0:	31000058 	cmpnei	r4,r6,1
    42c4:	29a9883a 	add	r20,r5,r6
    42c8:	2000a026 	beq	r4,zero,454c <_dtoa_r+0x16a4>
    42cc:	dc400e15 	stw	r17,56(sp)
    42d0:	8009883a 	mov	r4,r16
    42d4:	900b883a 	mov	r5,r18
    42d8:	a823883a 	mov	r17,r21
    42dc:	000d883a 	mov	r6,zero
    42e0:	01d00934 	movhi	r7,16420
    42e4:	000c8080 	call	c808 <__muldf3>
    42e8:	180b883a 	mov	r5,r3
    42ec:	1009883a 	mov	r4,r2
    42f0:	1825883a 	mov	r18,r3
    42f4:	102b883a 	mov	r21,r2
    42f8:	000d7a80 	call	d7a8 <__fixdfsi>
    42fc:	1009883a 	mov	r4,r2
    4300:	1021883a 	mov	r16,r2
    4304:	000d8340 	call	d834 <__floatsidf>
    4308:	a809883a 	mov	r4,r21
    430c:	900b883a 	mov	r5,r18
    4310:	100d883a 	mov	r6,r2
    4314:	180f883a 	mov	r7,r3
    4318:	8c400044 	addi	r17,r17,1
    431c:	84000c04 	addi	r16,r16,48
    4320:	000ce880 	call	ce88 <__subdf3>
    4324:	8c3fffc5 	stb	r16,-1(r17)
    4328:	1009883a 	mov	r4,r2
    432c:	180b883a 	mov	r5,r3
    4330:	a47fea1e 	bne	r20,r17,42dc <_dtoa_r+0x1434>
    4334:	dc400e17 	ldw	r17,56(sp)
    4338:	1021883a 	mov	r16,r2
    433c:	1825883a 	mov	r18,r3
    4340:	d9000c17 	ldw	r4,48(sp)
    4344:	d9400d17 	ldw	r5,52(sp)
    4348:	000d883a 	mov	r6,zero
    434c:	01cff834 	movhi	r7,16352
    4350:	000b4300 	call	b430 <__adddf3>
    4354:	800d883a 	mov	r6,r16
    4358:	900f883a 	mov	r7,r18
    435c:	1009883a 	mov	r4,r2
    4360:	180b883a 	mov	r5,r3
    4364:	000c7140 	call	c714 <__ledf2>
    4368:	10005416 	blt	r2,zero,44bc <_dtoa_r+0x1614>
    436c:	d9800c17 	ldw	r6,48(sp)
    4370:	d9c00d17 	ldw	r7,52(sp)
    4374:	0009883a 	mov	r4,zero
    4378:	014ff834 	movhi	r5,16352
    437c:	000ce880 	call	ce88 <__subdf3>
    4380:	800d883a 	mov	r6,r16
    4384:	900f883a 	mov	r7,r18
    4388:	1009883a 	mov	r4,r2
    438c:	180b883a 	mov	r5,r3
    4390:	000c6200 	call	c620 <__gedf2>
    4394:	00bc9a0e 	bge	zero,r2,3600 <_dtoa_r+0x758>
    4398:	a0bfffc7 	ldb	r2,-1(r20)
    439c:	a02b883a 	mov	r21,r20
    43a0:	a53fffc4 	addi	r20,r20,-1
    43a4:	10800c20 	cmpeqi	r2,r2,48
    43a8:	103ffb1e 	bne	r2,zero,4398 <_dtoa_r+0x14f0>
    43ac:	d8801117 	ldw	r2,68(sp)
    43b0:	10800044 	addi	r2,r2,1
    43b4:	d8800415 	stw	r2,16(sp)
    43b8:	003da106 	br	3a40 <_dtoa_r+0xb98>
    43bc:	d8c01217 	ldw	r3,72(sp)
    43c0:	d9000617 	ldw	r4,24(sp)
    43c4:	00800d84 	movi	r2,54
    43c8:	10c5c83a 	sub	r2,r2,r3
    43cc:	b0ad883a 	add	r22,r22,r2
    43d0:	2085883a 	add	r2,r4,r2
    43d4:	dd000817 	ldw	r20,32(sp)
    43d8:	2025883a 	mov	r18,r4
    43dc:	d8800615 	stw	r2,24(sp)
    43e0:	003d0e06 	br	381c <_dtoa_r+0x974>
    43e4:	d9000117 	ldw	r4,4(sp)
    43e8:	003c4b06 	br	3518 <_dtoa_r+0x670>
    43ec:	9821883a 	mov	r16,r19
    43f0:	8825883a 	mov	r18,r17
    43f4:	05400084 	movi	r21,2
    43f8:	003bb406 	br	32cc <_dtoa_r+0x424>
    43fc:	d8800517 	ldw	r2,20(sp)
    4400:	103ede26 	beq	r2,zero,3f7c <_dtoa_r+0x10d4>
    4404:	d8800b17 	ldw	r2,44(sp)
    4408:	00bc7d0e 	bge	zero,r2,3600 <_dtoa_r+0x758>
    440c:	900b883a 	mov	r5,r18
    4410:	8009883a 	mov	r4,r16
    4414:	000d883a 	mov	r6,zero
    4418:	01d00934 	movhi	r7,16420
    441c:	000c8080 	call	c808 <__muldf3>
    4420:	a9000044 	addi	r4,r21,1
    4424:	1021883a 	mov	r16,r2
    4428:	1825883a 	mov	r18,r3
    442c:	000d8340 	call	d834 <__floatsidf>
    4430:	800d883a 	mov	r6,r16
    4434:	900f883a 	mov	r7,r18
    4438:	1009883a 	mov	r4,r2
    443c:	180b883a 	mov	r5,r3
    4440:	000c8080 	call	c808 <__muldf3>
    4444:	1009883a 	mov	r4,r2
    4448:	000d883a 	mov	r6,zero
    444c:	01d00734 	movhi	r7,16412
    4450:	180b883a 	mov	r5,r3
    4454:	000b4300 	call	b430 <__adddf3>
    4458:	d9000417 	ldw	r4,16(sp)
    445c:	1029883a 	mov	r20,r2
    4460:	00bf3034 	movhi	r2,64704
    4464:	1887883a 	add	r3,r3,r2
    4468:	d8800b17 	ldw	r2,44(sp)
    446c:	213fffc4 	addi	r4,r4,-1
    4470:	d9001115 	stw	r4,68(sp)
    4474:	d8c00c15 	stw	r3,48(sp)
    4478:	d8800d15 	stw	r2,52(sp)
    447c:	003bb106 	br	3344 <_dtoa_r+0x49c>
    4480:	d8800417 	ldw	r2,16(sp)
    4484:	00c00c44 	movi	r3,49
    4488:	10800044 	addi	r2,r2,1
    448c:	d8800415 	stw	r2,16(sp)
    4490:	003c2a06 	br	353c <_dtoa_r+0x694>
    4494:	00800e44 	movi	r2,57
    4498:	8023883a 	mov	r17,r16
    449c:	d9400117 	ldw	r5,4(sp)
    44a0:	b0800005 	stb	r2,0(r22)
    44a4:	9021883a 	mov	r16,r18
    44a8:	01000e44 	movi	r4,57
    44ac:	003d5006 	br	39f0 <_dtoa_r+0xb48>
    44b0:	0029883a 	mov	r20,zero
    44b4:	0021883a 	mov	r16,zero
    44b8:	003e7106 	br	3e80 <_dtoa_r+0xfd8>
    44bc:	d8801117 	ldw	r2,68(sp)
    44c0:	d9000117 	ldw	r4,4(sp)
    44c4:	10800044 	addi	r2,r2,1
    44c8:	d8800415 	stw	r2,16(sp)
    44cc:	003c1206 	br	3518 <_dtoa_r+0x670>
    44d0:	103f241e 	bne	r2,zero,4164 <_dtoa_r+0x12bc>
    44d4:	9880004c 	andi	r2,r19,1
    44d8:	103f1e1e 	bne	r2,zero,4154 <_dtoa_r+0x12ac>
    44dc:	003f2106 	br	4164 <_dtoa_r+0x12bc>
    44e0:	d8801117 	ldw	r2,68(sp)
    44e4:	ddc00d17 	ldw	r23,52(sp)
    44e8:	10800044 	addi	r2,r2,1
    44ec:	d8800415 	stw	r2,16(sp)
    44f0:	003d5306 	br	3a40 <_dtoa_r+0xb98>
    44f4:	d8c00417 	ldw	r3,16(sp)
    44f8:	a8800e60 	cmpeqi	r2,r21,57
    44fc:	a827883a 	mov	r19,r21
    4500:	18c00044 	addi	r3,r3,1
    4504:	d8c00415 	stw	r3,16(sp)
    4508:	b5400044 	addi	r21,r22,1
    450c:	103fe11e 	bne	r2,zero,4494 <_dtoa_r+0x15ec>
    4510:	047f1216 	blt	zero,r17,415c <_dtoa_r+0x12b4>
    4514:	003f1306 	br	4164 <_dtoa_r+0x12bc>
    4518:	d8800217 	ldw	r2,8(sp)
    451c:	108000c8 	cmpgei	r2,r2,3
    4520:	103e481e 	bne	r2,zero,3e44 <_dtoa_r+0xf9c>
    4524:	dd400415 	stw	r21,16(sp)
    4528:	003e0d06 	br	3d60 <_dtoa_r+0xeb8>
    452c:	d8800217 	ldw	r2,8(sp)
    4530:	108000c8 	cmpgei	r2,r2,3
    4534:	103e431e 	bne	r2,zero,3e44 <_dtoa_r+0xf9c>
    4538:	d8800b17 	ldw	r2,44(sp)
    453c:	dd400415 	stw	r21,16(sp)
    4540:	d8800515 	stw	r2,20(sp)
    4544:	04bdb10e 	bge	zero,r18,3c0c <_dtoa_r+0xd64>
    4548:	003e5c06 	br	3ebc <_dtoa_r+0x1014>
    454c:	a829883a 	mov	r20,r21
    4550:	003f7b06 	br	4340 <_dtoa_r+0x1498>
    4554:	05400084 	movi	r21,2
    4558:	003b5c06 	br	32cc <_dtoa_r+0x424>
    455c:	01c00074 	movhi	r7,1
    4560:	01000074 	movhi	r4,1
    4564:	39c02d04 	addi	r7,r7,180
    4568:	000d883a 	mov	r6,zero
    456c:	01406a84 	movi	r5,426
    4570:	21003204 	addi	r4,r4,200
    4574:	00095080 	call	9508 <__assert_func>
    4578:	000b883a 	mov	r5,zero
    457c:	003b1506 	br	31d4 <_dtoa_r+0x32c>
    4580:	b8001115 	stw	zero,68(r23)
    4584:	000b883a 	mov	r5,zero
    4588:	b809883a 	mov	r4,r23
    458c:	00065500 	call	6550 <_Balloc>
    4590:	d8800115 	stw	r2,4(sp)
    4594:	103ff126 	beq	r2,zero,455c <_dtoa_r+0x16b4>
    4598:	d8800117 	ldw	r2,4(sp)
    459c:	d8001e15 	stw	zero,120(sp)
    45a0:	b8801015 	stw	r2,64(r23)
    45a4:	00bfffc4 	movi	r2,-1
    45a8:	d8800515 	stw	r2,20(sp)
    45ac:	d8800b15 	stw	r2,44(sp)
    45b0:	00800044 	movi	r2,1
    45b4:	d8800715 	stw	r2,28(sp)
    45b8:	003c1106 	br	3600 <_dtoa_r+0x758>
    45bc:	01c00074 	movhi	r7,1
    45c0:	01000074 	movhi	r4,1
    45c4:	39c02d04 	addi	r7,r7,180
    45c8:	000d883a 	mov	r6,zero
    45cc:	0140ba84 	movi	r5,746
    45d0:	21003204 	addi	r4,r4,200
    45d4:	00095080 	call	9508 <__assert_func>
    45d8:	00800074 	movhi	r2,1
    45dc:	10802a04 	addi	r2,r2,168
    45e0:	d8800115 	stw	r2,4(sp)
    45e4:	003a6506 	br	2f7c <_dtoa_r+0xd4>
    45e8:	18c00120 	cmpeqi	r3,r3,4
    45ec:	183cc91e 	bne	r3,zero,3914 <_dtoa_r+0xa6c>
    45f0:	00c00f04 	movi	r3,60
    45f4:	1885c83a 	sub	r2,r3,r2
    45f8:	003cc106 	br	3900 <_dtoa_r+0xa58>

000045fc <__sflush_r>:
    45fc:	f811883a 	mov	r8,ra
    4600:	000e1ac0 	call	e1ac <_mcount>
    4604:	403f883a 	mov	ra,r8
    4608:	defffb04 	addi	sp,sp,-20
    460c:	dfc00415 	stw	ra,16(sp)
    4610:	dcc00315 	stw	r19,12(sp)
    4614:	dc800215 	stw	r18,8(sp)
    4618:	dc400115 	stw	r17,4(sp)
    461c:	dc000015 	stw	r16,0(sp)
    4620:	2880030b 	ldhu	r2,12(r5)
    4624:	2821883a 	mov	r16,r5
    4628:	2027883a 	mov	r19,r4
    462c:	10c0020c 	andi	r3,r2,8
    4630:	18003f1e 	bne	r3,zero,4730 <__sflush_r+0x134>
    4634:	28c00117 	ldw	r3,4(r5)
    4638:	10820014 	ori	r2,r2,2048
    463c:	2880030d 	sth	r2,12(r5)
    4640:	00c0550e 	bge	zero,r3,4798 <__sflush_r+0x19c>
    4644:	82000a17 	ldw	r8,40(r16)
    4648:	40003126 	beq	r8,zero,4710 <__sflush_r+0x114>
    464c:	9c400017 	ldw	r17,0(r19)
    4650:	1104000c 	andi	r4,r2,4096
    4654:	98000015 	stw	zero,0(r19)
    4658:	81400717 	ldw	r5,28(r16)
    465c:	1007883a 	mov	r3,r2
    4660:	2000521e 	bne	r4,zero,47ac <__sflush_r+0x1b0>
    4664:	01c00044 	movi	r7,1
    4668:	000d883a 	mov	r6,zero
    466c:	9809883a 	mov	r4,r19
    4670:	403ee83a 	callr	r8
    4674:	10ffffd8 	cmpnei	r3,r2,-1
    4678:	18005826 	beq	r3,zero,47dc <__sflush_r+0x1e0>
    467c:	80c0030b 	ldhu	r3,12(r16)
    4680:	82000a17 	ldw	r8,40(r16)
    4684:	81400717 	ldw	r5,28(r16)
    4688:	18c0010c 	andi	r3,r3,4
    468c:	18000626 	beq	r3,zero,46a8 <__sflush_r+0xac>
    4690:	81000117 	ldw	r4,4(r16)
    4694:	80c00c17 	ldw	r3,48(r16)
    4698:	1105c83a 	sub	r2,r2,r4
    469c:	18000226 	beq	r3,zero,46a8 <__sflush_r+0xac>
    46a0:	80c00f17 	ldw	r3,60(r16)
    46a4:	10c5c83a 	sub	r2,r2,r3
    46a8:	100d883a 	mov	r6,r2
    46ac:	000f883a 	mov	r7,zero
    46b0:	9809883a 	mov	r4,r19
    46b4:	403ee83a 	callr	r8
    46b8:	10ffffd8 	cmpnei	r3,r2,-1
    46bc:	18003d1e 	bne	r3,zero,47b4 <__sflush_r+0x1b8>
    46c0:	99000017 	ldw	r4,0(r19)
    46c4:	80c0030b 	ldhu	r3,12(r16)
    46c8:	20004e26 	beq	r4,zero,4804 <__sflush_r+0x208>
    46cc:	21400760 	cmpeqi	r5,r4,29
    46d0:	2800021e 	bne	r5,zero,46dc <__sflush_r+0xe0>
    46d4:	210005a0 	cmpeqi	r4,r4,22
    46d8:	20002c26 	beq	r4,zero,478c <__sflush_r+0x190>
    46dc:	80800417 	ldw	r2,16(r16)
    46e0:	18fdffcc 	andi	r3,r3,63487
    46e4:	80c0030d 	sth	r3,12(r16)
    46e8:	80000115 	stw	zero,4(r16)
    46ec:	80800015 	stw	r2,0(r16)
    46f0:	81400c17 	ldw	r5,48(r16)
    46f4:	9c400015 	stw	r17,0(r19)
    46f8:	28000526 	beq	r5,zero,4710 <__sflush_r+0x114>
    46fc:	80801004 	addi	r2,r16,64
    4700:	28800226 	beq	r5,r2,470c <__sflush_r+0x110>
    4704:	9809883a 	mov	r4,r19
    4708:	0004e980 	call	4e98 <_free_r>
    470c:	80000c15 	stw	zero,48(r16)
    4710:	0005883a 	mov	r2,zero
    4714:	dfc00417 	ldw	ra,16(sp)
    4718:	dcc00317 	ldw	r19,12(sp)
    471c:	dc800217 	ldw	r18,8(sp)
    4720:	dc400117 	ldw	r17,4(sp)
    4724:	dc000017 	ldw	r16,0(sp)
    4728:	dec00504 	addi	sp,sp,20
    472c:	f800283a 	ret
    4730:	2c800417 	ldw	r18,16(r5)
    4734:	903ff626 	beq	r18,zero,4710 <__sflush_r+0x114>
    4738:	2c400017 	ldw	r17,0(r5)
    473c:	108000cc 	andi	r2,r2,3
    4740:	2c800015 	stw	r18,0(r5)
    4744:	8ca3c83a 	sub	r17,r17,r18
    4748:	1000161e 	bne	r2,zero,47a4 <__sflush_r+0x1a8>
    474c:	28800517 	ldw	r2,20(r5)
    4750:	80800215 	stw	r2,8(r16)
    4754:	04400316 	blt	zero,r17,4764 <__sflush_r+0x168>
    4758:	003fed06 	br	4710 <__sflush_r+0x114>
    475c:	90a5883a 	add	r18,r18,r2
    4760:	047feb0e 	bge	zero,r17,4710 <__sflush_r+0x114>
    4764:	80800917 	ldw	r2,36(r16)
    4768:	81400717 	ldw	r5,28(r16)
    476c:	880f883a 	mov	r7,r17
    4770:	900d883a 	mov	r6,r18
    4774:	9809883a 	mov	r4,r19
    4778:	103ee83a 	callr	r2
    477c:	88a3c83a 	sub	r17,r17,r2
    4780:	00bff616 	blt	zero,r2,475c <__sflush_r+0x160>
    4784:	80c0030b 	ldhu	r3,12(r16)
    4788:	00bfffc4 	movi	r2,-1
    478c:	18c01014 	ori	r3,r3,64
    4790:	80c0030d 	sth	r3,12(r16)
    4794:	003fdf06 	br	4714 <__sflush_r+0x118>
    4798:	28c00f17 	ldw	r3,60(r5)
    479c:	00ffa916 	blt	zero,r3,4644 <__sflush_r+0x48>
    47a0:	003fdb06 	br	4710 <__sflush_r+0x114>
    47a4:	0005883a 	mov	r2,zero
    47a8:	003fe906 	br	4750 <__sflush_r+0x154>
    47ac:	80801417 	ldw	r2,80(r16)
    47b0:	003fb506 	br	4688 <__sflush_r+0x8c>
    47b4:	80c0030b 	ldhu	r3,12(r16)
    47b8:	81000417 	ldw	r4,16(r16)
    47bc:	80000115 	stw	zero,4(r16)
    47c0:	197dffcc 	andi	r5,r3,63487
    47c4:	8140030d 	sth	r5,12(r16)
    47c8:	81000015 	stw	r4,0(r16)
    47cc:	18c4000c 	andi	r3,r3,4096
    47d0:	183fc726 	beq	r3,zero,46f0 <__sflush_r+0xf4>
    47d4:	80801415 	stw	r2,80(r16)
    47d8:	003fc506 	br	46f0 <__sflush_r+0xf4>
    47dc:	98c00017 	ldw	r3,0(r19)
    47e0:	183fa626 	beq	r3,zero,467c <__sflush_r+0x80>
    47e4:	19000760 	cmpeqi	r4,r3,29
    47e8:	20000e1e 	bne	r4,zero,4824 <__sflush_r+0x228>
    47ec:	18c00598 	cmpnei	r3,r3,22
    47f0:	18000c26 	beq	r3,zero,4824 <__sflush_r+0x228>
    47f4:	80c0030b 	ldhu	r3,12(r16)
    47f8:	18c01014 	ori	r3,r3,64
    47fc:	80c0030d 	sth	r3,12(r16)
    4800:	003fc406 	br	4714 <__sflush_r+0x118>
    4804:	81000417 	ldw	r4,16(r16)
    4808:	197dffcc 	andi	r5,r3,63487
    480c:	8140030d 	sth	r5,12(r16)
    4810:	80000115 	stw	zero,4(r16)
    4814:	81000015 	stw	r4,0(r16)
    4818:	18c4000c 	andi	r3,r3,4096
    481c:	183fb426 	beq	r3,zero,46f0 <__sflush_r+0xf4>
    4820:	003fec06 	br	47d4 <__sflush_r+0x1d8>
    4824:	9c400015 	stw	r17,0(r19)
    4828:	0005883a 	mov	r2,zero
    482c:	003fb906 	br	4714 <__sflush_r+0x118>

00004830 <_fflush_r>:
    4830:	f811883a 	mov	r8,ra
    4834:	000e1ac0 	call	e1ac <_mcount>
    4838:	403f883a 	mov	ra,r8
    483c:	defffd04 	addi	sp,sp,-12
    4840:	dfc00215 	stw	ra,8(sp)
    4844:	dc000115 	stw	r16,4(sp)
    4848:	2021883a 	mov	r16,r4
    484c:	20000226 	beq	r4,zero,4858 <_fflush_r+0x28>
    4850:	20800e17 	ldw	r2,56(r4)
    4854:	10000726 	beq	r2,zero,4874 <_fflush_r+0x44>
    4858:	2880030f 	ldh	r2,12(r5)
    485c:	10000a1e 	bne	r2,zero,4888 <_fflush_r+0x58>
    4860:	0005883a 	mov	r2,zero
    4864:	dfc00217 	ldw	ra,8(sp)
    4868:	dc000117 	ldw	r16,4(sp)
    486c:	dec00304 	addi	sp,sp,12
    4870:	f800283a 	ret
    4874:	d9400015 	stw	r5,0(sp)
    4878:	0004cd40 	call	4cd4 <__sinit>
    487c:	d9400017 	ldw	r5,0(sp)
    4880:	2880030f 	ldh	r2,12(r5)
    4884:	103ff626 	beq	r2,zero,4860 <_fflush_r+0x30>
    4888:	8009883a 	mov	r4,r16
    488c:	dfc00217 	ldw	ra,8(sp)
    4890:	dc000117 	ldw	r16,4(sp)
    4894:	dec00304 	addi	sp,sp,12
    4898:	00045fc1 	jmpi	45fc <__sflush_r>

0000489c <fflush>:
    489c:	f811883a 	mov	r8,ra
    48a0:	000e1ac0 	call	e1ac <_mcount>
    48a4:	403f883a 	mov	ra,r8
    48a8:	20001726 	beq	r4,zero,4908 <fflush+0x6c>
    48ac:	00800074 	movhi	r2,1
    48b0:	200b883a 	mov	r5,r4
    48b4:	1108d117 	ldw	r4,9028(r2)
    48b8:	20000226 	beq	r4,zero,48c4 <fflush+0x28>
    48bc:	20800e17 	ldw	r2,56(r4)
    48c0:	10000526 	beq	r2,zero,48d8 <fflush+0x3c>
    48c4:	2880030f 	ldh	r2,12(r5)
    48c8:	1000021e 	bne	r2,zero,48d4 <fflush+0x38>
    48cc:	0005883a 	mov	r2,zero
    48d0:	f800283a 	ret
    48d4:	00045fc1 	jmpi	45fc <__sflush_r>
    48d8:	defffd04 	addi	sp,sp,-12
    48dc:	dfc00215 	stw	ra,8(sp)
    48e0:	d9400115 	stw	r5,4(sp)
    48e4:	d9000015 	stw	r4,0(sp)
    48e8:	0004cd40 	call	4cd4 <__sinit>
    48ec:	d9400117 	ldw	r5,4(sp)
    48f0:	d9000017 	ldw	r4,0(sp)
    48f4:	2880030f 	ldh	r2,12(r5)
    48f8:	10000826 	beq	r2,zero,491c <fflush+0x80>
    48fc:	dfc00217 	ldw	ra,8(sp)
    4900:	dec00304 	addi	sp,sp,12
    4904:	00045fc1 	jmpi	45fc <__sflush_r>
    4908:	00800074 	movhi	r2,1
    490c:	1108d017 	ldw	r4,9024(r2)
    4910:	01400034 	movhi	r5,0
    4914:	29520c04 	addi	r5,r5,18480
    4918:	00057081 	jmpi	5708 <_fwalk_reent>
    491c:	0005883a 	mov	r2,zero
    4920:	dfc00217 	ldw	ra,8(sp)
    4924:	dec00304 	addi	sp,sp,12
    4928:	f800283a 	ret

0000492c <__fp_lock>:
    492c:	f811883a 	mov	r8,ra
    4930:	000e1ac0 	call	e1ac <_mcount>
    4934:	403f883a 	mov	ra,r8
    4938:	0005883a 	mov	r2,zero
    493c:	f800283a 	ret

00004940 <_cleanup_r>:
    4940:	f811883a 	mov	r8,ra
    4944:	000e1ac0 	call	e1ac <_mcount>
    4948:	403f883a 	mov	ra,r8
    494c:	01400074 	movhi	r5,1
    4950:	2965c904 	addi	r5,r5,-26844
    4954:	00057081 	jmpi	5708 <_fwalk_reent>

00004958 <__fp_unlock>:
    4958:	f811883a 	mov	r8,ra
    495c:	000e1ac0 	call	e1ac <_mcount>
    4960:	403f883a 	mov	ra,r8
    4964:	0005883a 	mov	r2,zero
    4968:	f800283a 	ret

0000496c <__sinit.part.0>:
    496c:	f811883a 	mov	r8,ra
    4970:	000e1ac0 	call	e1ac <_mcount>
    4974:	403f883a 	mov	ra,r8
    4978:	00c00034 	movhi	r3,0
    497c:	20800117 	ldw	r2,4(r4)
    4980:	18d25004 	addi	r3,r3,18752
    4984:	20c00f15 	stw	r3,60(r4)
    4988:	2140bb04 	addi	r5,r4,748
    498c:	00c000c4 	movi	r3,3
    4990:	20c0b915 	stw	r3,740(r4)
    4994:	2140ba15 	stw	r5,744(r4)
    4998:	2000b815 	stw	zero,736(r4)
    499c:	10001705 	stb	zero,92(r2)
    49a0:	10001745 	stb	zero,93(r2)
    49a4:	10001785 	stb	zero,94(r2)
    49a8:	100017c5 	stb	zero,95(r2)
    49ac:	10001805 	stb	zero,96(r2)
    49b0:	10001845 	stb	zero,97(r2)
    49b4:	10001885 	stb	zero,98(r2)
    49b8:	100018c5 	stb	zero,99(r2)
    49bc:	00c00104 	movi	r3,4
    49c0:	10c00315 	stw	r3,12(r2)
    49c4:	02000034 	movhi	r8,0
    49c8:	20c00217 	ldw	r3,8(r4)
    49cc:	01c00034 	movhi	r7,0
    49d0:	01800034 	movhi	r6,0
    49d4:	01400034 	movhi	r5,0
    49d8:	421f5804 	addi	r8,r8,32096
    49dc:	39df7504 	addi	r7,r7,32212
    49e0:	319f9804 	addi	r6,r6,32352
    49e4:	295fb204 	addi	r5,r5,32456
    49e8:	02400074 	movhi	r9,1
    49ec:	12000815 	stw	r8,32(r2)
    49f0:	11c00915 	stw	r7,36(r2)
    49f4:	11800a15 	stw	r6,40(r2)
    49f8:	11400b15 	stw	r5,44(r2)
    49fc:	10001915 	stw	zero,100(r2)
    4a00:	10000015 	stw	zero,0(r2)
    4a04:	10000115 	stw	zero,4(r2)
    4a08:	10000215 	stw	zero,8(r2)
    4a0c:	10000415 	stw	zero,16(r2)
    4a10:	10000515 	stw	zero,20(r2)
    4a14:	10000615 	stw	zero,24(r2)
    4a18:	10800715 	stw	r2,28(r2)
    4a1c:	4a400284 	addi	r9,r9,10
    4a20:	1a400315 	stw	r9,12(r3)
    4a24:	18001915 	stw	zero,100(r3)
    4a28:	18000015 	stw	zero,0(r3)
    4a2c:	18000115 	stw	zero,4(r3)
    4a30:	18000215 	stw	zero,8(r3)
    4a34:	18000415 	stw	zero,16(r3)
    4a38:	18001705 	stb	zero,92(r3)
    4a3c:	18001745 	stb	zero,93(r3)
    4a40:	18001785 	stb	zero,94(r3)
    4a44:	180017c5 	stb	zero,95(r3)
    4a48:	18001805 	stb	zero,96(r3)
    4a4c:	18001845 	stb	zero,97(r3)
    4a50:	18001885 	stb	zero,98(r3)
    4a54:	180018c5 	stb	zero,99(r3)
    4a58:	20800317 	ldw	r2,12(r4)
    4a5c:	024000b4 	movhi	r9,2
    4a60:	18000515 	stw	zero,20(r3)
    4a64:	18000615 	stw	zero,24(r3)
    4a68:	18c00715 	stw	r3,28(r3)
    4a6c:	1a000815 	stw	r8,32(r3)
    4a70:	19c00915 	stw	r7,36(r3)
    4a74:	19800a15 	stw	r6,40(r3)
    4a78:	19400b15 	stw	r5,44(r3)
    4a7c:	4a400484 	addi	r9,r9,18
    4a80:	12400315 	stw	r9,12(r2)
    4a84:	10001915 	stw	zero,100(r2)
    4a88:	10000015 	stw	zero,0(r2)
    4a8c:	10000115 	stw	zero,4(r2)
    4a90:	10000215 	stw	zero,8(r2)
    4a94:	10000415 	stw	zero,16(r2)
    4a98:	10000515 	stw	zero,20(r2)
    4a9c:	10000615 	stw	zero,24(r2)
    4aa0:	10001705 	stb	zero,92(r2)
    4aa4:	10001745 	stb	zero,93(r2)
    4aa8:	10001785 	stb	zero,94(r2)
    4aac:	100017c5 	stb	zero,95(r2)
    4ab0:	10001805 	stb	zero,96(r2)
    4ab4:	10001845 	stb	zero,97(r2)
    4ab8:	10001885 	stb	zero,98(r2)
    4abc:	100018c5 	stb	zero,99(r2)
    4ac0:	10800715 	stw	r2,28(r2)
    4ac4:	12000815 	stw	r8,32(r2)
    4ac8:	11c00915 	stw	r7,36(r2)
    4acc:	11800a15 	stw	r6,40(r2)
    4ad0:	11400b15 	stw	r5,44(r2)
    4ad4:	00800044 	movi	r2,1
    4ad8:	20800e15 	stw	r2,56(r4)
    4adc:	f800283a 	ret

00004ae0 <__sfmoreglue>:
    4ae0:	f811883a 	mov	r8,ra
    4ae4:	000e1ac0 	call	e1ac <_mcount>
    4ae8:	403f883a 	mov	ra,r8
    4aec:	defffc04 	addi	sp,sp,-16
    4af0:	dfc00315 	stw	ra,12(sp)
    4af4:	dc800215 	stw	r18,8(sp)
    4af8:	dc400115 	stw	r17,4(sp)
    4afc:	dc000015 	stw	r16,0(sp)
    4b00:	2c7fffc4 	addi	r17,r5,-1
    4b04:	8c401a24 	muli	r17,r17,104
    4b08:	2825883a 	mov	r18,r5
    4b0c:	89401d04 	addi	r5,r17,116
    4b10:	0005a600 	call	5a60 <_malloc_r>
    4b14:	1021883a 	mov	r16,r2
    4b18:	10000726 	beq	r2,zero,4b38 <__sfmoreglue+0x58>
    4b1c:	11000304 	addi	r4,r2,12
    4b20:	10000015 	stw	zero,0(r2)
    4b24:	14800115 	stw	r18,4(r2)
    4b28:	11000215 	stw	r4,8(r2)
    4b2c:	89801a04 	addi	r6,r17,104
    4b30:	000b883a 	mov	r5,zero
    4b34:	00064540 	call	6454 <memset>
    4b38:	8005883a 	mov	r2,r16
    4b3c:	dfc00317 	ldw	ra,12(sp)
    4b40:	dc800217 	ldw	r18,8(sp)
    4b44:	dc400117 	ldw	r17,4(sp)
    4b48:	dc000017 	ldw	r16,0(sp)
    4b4c:	dec00404 	addi	sp,sp,16
    4b50:	f800283a 	ret

00004b54 <__sfp>:
    4b54:	f811883a 	mov	r8,ra
    4b58:	000e1ac0 	call	e1ac <_mcount>
    4b5c:	403f883a 	mov	ra,r8
    4b60:	defffb04 	addi	sp,sp,-20
    4b64:	dfc00415 	stw	ra,16(sp)
    4b68:	dcc00315 	stw	r19,12(sp)
    4b6c:	dc800215 	stw	r18,8(sp)
    4b70:	dc400115 	stw	r17,4(sp)
    4b74:	dc000015 	stw	r16,0(sp)
    4b78:	00800074 	movhi	r2,1
    4b7c:	1408d017 	ldw	r16,9024(r2)
    4b80:	2023883a 	mov	r17,r4
    4b84:	80800e17 	ldw	r2,56(r16)
    4b88:	10003126 	beq	r2,zero,4c50 <__sfp+0xfc>
    4b8c:	8100ba17 	ldw	r4,744(r16)
    4b90:	8140b917 	ldw	r5,740(r16)
    4b94:	04c00104 	movi	r19,4
    4b98:	8400b804 	addi	r16,r16,736
    4b9c:	297fffc4 	addi	r5,r5,-1
    4ba0:	2800050e 	bge	r5,zero,4bb8 <__sfp+0x64>
    4ba4:	00002406 	br	4c38 <__sfp+0xe4>
    4ba8:	297fffc4 	addi	r5,r5,-1
    4bac:	28bfffd8 	cmpnei	r2,r5,-1
    4bb0:	21001a04 	addi	r4,r4,104
    4bb4:	10002026 	beq	r2,zero,4c38 <__sfp+0xe4>
    4bb8:	2080030f 	ldh	r2,12(r4)
    4bbc:	103ffa1e 	bne	r2,zero,4ba8 <__sfp+0x54>
    4bc0:	00bffff4 	movhi	r2,65535
    4bc4:	10800044 	addi	r2,r2,1
    4bc8:	20001915 	stw	zero,100(r4)
    4bcc:	20000015 	stw	zero,0(r4)
    4bd0:	20000115 	stw	zero,4(r4)
    4bd4:	20000215 	stw	zero,8(r4)
    4bd8:	20800315 	stw	r2,12(r4)
    4bdc:	20000415 	stw	zero,16(r4)
    4be0:	20000515 	stw	zero,20(r4)
    4be4:	20000615 	stw	zero,24(r4)
    4be8:	20001705 	stb	zero,92(r4)
    4bec:	20001745 	stb	zero,93(r4)
    4bf0:	20001785 	stb	zero,94(r4)
    4bf4:	200017c5 	stb	zero,95(r4)
    4bf8:	20001805 	stb	zero,96(r4)
    4bfc:	20001845 	stb	zero,97(r4)
    4c00:	20001885 	stb	zero,98(r4)
    4c04:	200018c5 	stb	zero,99(r4)
    4c08:	20000c15 	stw	zero,48(r4)
    4c0c:	20000d15 	stw	zero,52(r4)
    4c10:	20001115 	stw	zero,68(r4)
    4c14:	20001215 	stw	zero,72(r4)
    4c18:	2005883a 	mov	r2,r4
    4c1c:	dfc00417 	ldw	ra,16(sp)
    4c20:	dcc00317 	ldw	r19,12(sp)
    4c24:	dc800217 	ldw	r18,8(sp)
    4c28:	dc400117 	ldw	r17,4(sp)
    4c2c:	dc000017 	ldw	r16,0(sp)
    4c30:	dec00504 	addi	sp,sp,20
    4c34:	f800283a 	ret
    4c38:	80800017 	ldw	r2,0(r16)
    4c3c:	10000726 	beq	r2,zero,4c5c <__sfp+0x108>
    4c40:	11000217 	ldw	r4,8(r2)
    4c44:	11400117 	ldw	r5,4(r2)
    4c48:	1021883a 	mov	r16,r2
    4c4c:	003fd306 	br	4b9c <__sfp+0x48>
    4c50:	8009883a 	mov	r4,r16
    4c54:	000496c0 	call	496c <__sinit.part.0>
    4c58:	003fcc06 	br	4b8c <__sfp+0x38>
    4c5c:	01406b04 	movi	r5,428
    4c60:	8809883a 	mov	r4,r17
    4c64:	0005a600 	call	5a60 <_malloc_r>
    4c68:	1025883a 	mov	r18,r2
    4c6c:	10000c26 	beq	r2,zero,4ca0 <__sfp+0x14c>
    4c70:	11000304 	addi	r4,r2,12
    4c74:	11000215 	stw	r4,8(r2)
    4c78:	000b883a 	mov	r5,zero
    4c7c:	10000015 	stw	zero,0(r2)
    4c80:	14c00115 	stw	r19,4(r2)
    4c84:	01806804 	movi	r6,416
    4c88:	00064540 	call	6454 <memset>
    4c8c:	1009883a 	mov	r4,r2
    4c90:	84800015 	stw	r18,0(r16)
    4c94:	014000c4 	movi	r5,3
    4c98:	9021883a 	mov	r16,r18
    4c9c:	003fc606 	br	4bb8 <__sfp+0x64>
    4ca0:	80000015 	stw	zero,0(r16)
    4ca4:	00800304 	movi	r2,12
    4ca8:	88800015 	stw	r2,0(r17)
    4cac:	0009883a 	mov	r4,zero
    4cb0:	003fd906 	br	4c18 <__sfp+0xc4>

00004cb4 <_cleanup>:
    4cb4:	f811883a 	mov	r8,ra
    4cb8:	000e1ac0 	call	e1ac <_mcount>
    4cbc:	403f883a 	mov	ra,r8
    4cc0:	00800074 	movhi	r2,1
    4cc4:	1108d017 	ldw	r4,9024(r2)
    4cc8:	01400074 	movhi	r5,1
    4ccc:	2965c904 	addi	r5,r5,-26844
    4cd0:	00057081 	jmpi	5708 <_fwalk_reent>

00004cd4 <__sinit>:
    4cd4:	f811883a 	mov	r8,ra
    4cd8:	000e1ac0 	call	e1ac <_mcount>
    4cdc:	403f883a 	mov	ra,r8
    4ce0:	20800e17 	ldw	r2,56(r4)
    4ce4:	10000126 	beq	r2,zero,4cec <__sinit+0x18>
    4ce8:	f800283a 	ret
    4cec:	000496c1 	jmpi	496c <__sinit.part.0>

00004cf0 <__sfp_lock_acquire>:
    4cf0:	f811883a 	mov	r8,ra
    4cf4:	000e1ac0 	call	e1ac <_mcount>
    4cf8:	403f883a 	mov	ra,r8
    4cfc:	f800283a 	ret

00004d00 <__sfp_lock_release>:
    4d00:	f811883a 	mov	r8,ra
    4d04:	000e1ac0 	call	e1ac <_mcount>
    4d08:	403f883a 	mov	ra,r8
    4d0c:	f800283a 	ret

00004d10 <__sinit_lock_acquire>:
    4d10:	f811883a 	mov	r8,ra
    4d14:	000e1ac0 	call	e1ac <_mcount>
    4d18:	403f883a 	mov	ra,r8
    4d1c:	f800283a 	ret

00004d20 <__sinit_lock_release>:
    4d20:	f811883a 	mov	r8,ra
    4d24:	000e1ac0 	call	e1ac <_mcount>
    4d28:	403f883a 	mov	ra,r8
    4d2c:	f800283a 	ret

00004d30 <__fp_lock_all>:
    4d30:	f811883a 	mov	r8,ra
    4d34:	000e1ac0 	call	e1ac <_mcount>
    4d38:	403f883a 	mov	ra,r8
    4d3c:	00800074 	movhi	r2,1
    4d40:	1108d117 	ldw	r4,9028(r2)
    4d44:	01400034 	movhi	r5,0
    4d48:	29524b04 	addi	r5,r5,18732
    4d4c:	00056641 	jmpi	5664 <_fwalk>

00004d50 <__fp_unlock_all>:
    4d50:	f811883a 	mov	r8,ra
    4d54:	000e1ac0 	call	e1ac <_mcount>
    4d58:	403f883a 	mov	ra,r8
    4d5c:	00800074 	movhi	r2,1
    4d60:	1108d117 	ldw	r4,9028(r2)
    4d64:	01400034 	movhi	r5,0
    4d68:	29525604 	addi	r5,r5,18776
    4d6c:	00056641 	jmpi	5664 <_fwalk>

00004d70 <_malloc_trim_r>:
    4d70:	f811883a 	mov	r8,ra
    4d74:	000e1ac0 	call	e1ac <_mcount>
    4d78:	403f883a 	mov	ra,r8
    4d7c:	defffb04 	addi	sp,sp,-20
    4d80:	dfc00415 	stw	ra,16(sp)
    4d84:	dcc00315 	stw	r19,12(sp)
    4d88:	dc800215 	stw	r18,8(sp)
    4d8c:	dc400115 	stw	r17,4(sp)
    4d90:	dc000015 	stw	r16,0(sp)
    4d94:	04c00074 	movhi	r19,1
    4d98:	2821883a 	mov	r16,r5
    4d9c:	9cc2e804 	addi	r19,r19,2976
    4da0:	2025883a 	mov	r18,r4
    4da4:	000e18c0 	call	e18c <__malloc_lock>
    4da8:	98800217 	ldw	r2,8(r19)
    4dac:	14400117 	ldw	r17,4(r2)
    4db0:	00bfff04 	movi	r2,-4
    4db4:	88a2703a 	and	r17,r17,r2
    4db8:	8c21c83a 	sub	r16,r17,r16
    4dbc:	8403fbc4 	addi	r16,r16,4079
    4dc0:	8020d33a 	srli	r16,r16,12
    4dc4:	843fffc4 	addi	r16,r16,-1
    4dc8:	8020933a 	slli	r16,r16,12
    4dcc:	80840008 	cmpgei	r2,r16,4096
    4dd0:	10000626 	beq	r2,zero,4dec <_malloc_trim_r+0x7c>
    4dd4:	000b883a 	mov	r5,zero
    4dd8:	9009883a 	mov	r4,r18
    4ddc:	0007cfc0 	call	7cfc <_sbrk_r>
    4de0:	98c00217 	ldw	r3,8(r19)
    4de4:	1c47883a 	add	r3,r3,r17
    4de8:	10c00a26 	beq	r2,r3,4e14 <_malloc_trim_r+0xa4>
    4dec:	9009883a 	mov	r4,r18
    4df0:	000e19c0 	call	e19c <__malloc_unlock>
    4df4:	0005883a 	mov	r2,zero
    4df8:	dfc00417 	ldw	ra,16(sp)
    4dfc:	dcc00317 	ldw	r19,12(sp)
    4e00:	dc800217 	ldw	r18,8(sp)
    4e04:	dc400117 	ldw	r17,4(sp)
    4e08:	dc000017 	ldw	r16,0(sp)
    4e0c:	dec00504 	addi	sp,sp,20
    4e10:	f800283a 	ret
    4e14:	040bc83a 	sub	r5,zero,r16
    4e18:	9009883a 	mov	r4,r18
    4e1c:	0007cfc0 	call	7cfc <_sbrk_r>
    4e20:	10bfffd8 	cmpnei	r2,r2,-1
    4e24:	10000d26 	beq	r2,zero,4e5c <_malloc_trim_r+0xec>
    4e28:	00800074 	movhi	r2,1
    4e2c:	1088ef17 	ldw	r2,9148(r2)
    4e30:	98c00217 	ldw	r3,8(r19)
    4e34:	8c23c83a 	sub	r17,r17,r16
    4e38:	8c400054 	ori	r17,r17,1
    4e3c:	1421c83a 	sub	r16,r2,r16
    4e40:	1c400115 	stw	r17,4(r3)
    4e44:	00800074 	movhi	r2,1
    4e48:	9009883a 	mov	r4,r18
    4e4c:	1408ef15 	stw	r16,9148(r2)
    4e50:	000e19c0 	call	e19c <__malloc_unlock>
    4e54:	00800044 	movi	r2,1
    4e58:	003fe706 	br	4df8 <_malloc_trim_r+0x88>
    4e5c:	000b883a 	mov	r5,zero
    4e60:	9009883a 	mov	r4,r18
    4e64:	0007cfc0 	call	7cfc <_sbrk_r>
    4e68:	99000217 	ldw	r4,8(r19)
    4e6c:	1107c83a 	sub	r3,r2,r4
    4e70:	19400410 	cmplti	r5,r3,16
    4e74:	283fdd1e 	bne	r5,zero,4dec <_malloc_trim_r+0x7c>
    4e78:	01400074 	movhi	r5,1
    4e7c:	2948d217 	ldw	r5,9032(r5)
    4e80:	18c00054 	ori	r3,r3,1
    4e84:	20c00115 	stw	r3,4(r4)
    4e88:	1145c83a 	sub	r2,r2,r5
    4e8c:	01400074 	movhi	r5,1
    4e90:	2888ef15 	stw	r2,9148(r5)
    4e94:	003fd506 	br	4dec <_malloc_trim_r+0x7c>

00004e98 <_free_r>:
    4e98:	f811883a 	mov	r8,ra
    4e9c:	000e1ac0 	call	e1ac <_mcount>
    4ea0:	403f883a 	mov	ra,r8
    4ea4:	28004f26 	beq	r5,zero,4fe4 <_free_r+0x14c>
    4ea8:	defffd04 	addi	sp,sp,-12
    4eac:	dfc00215 	stw	ra,8(sp)
    4eb0:	dc400115 	stw	r17,4(sp)
    4eb4:	dc000015 	stw	r16,0(sp)
    4eb8:	2821883a 	mov	r16,r5
    4ebc:	2023883a 	mov	r17,r4
    4ec0:	000e18c0 	call	e18c <__malloc_lock>
    4ec4:	81ffff17 	ldw	r7,-4(r16)
    4ec8:	00bfff84 	movi	r2,-2
    4ecc:	80fffe04 	addi	r3,r16,-8
    4ed0:	3884703a 	and	r2,r7,r2
    4ed4:	01000074 	movhi	r4,1
    4ed8:	188d883a 	add	r6,r3,r2
    4edc:	2102e804 	addi	r4,r4,2976
    4ee0:	31400117 	ldw	r5,4(r6)
    4ee4:	22000217 	ldw	r8,8(r4)
    4ee8:	027fff04 	movi	r9,-4
    4eec:	2a4a703a 	and	r5,r5,r9
    4ef0:	41806426 	beq	r8,r6,5084 <_free_r+0x1ec>
    4ef4:	31400115 	stw	r5,4(r6)
    4ef8:	39c0004c 	andi	r7,r7,1
    4efc:	3151883a 	add	r8,r6,r5
    4f00:	3800281e 	bne	r7,zero,4fa4 <_free_r+0x10c>
    4f04:	82bffe17 	ldw	r10,-8(r16)
    4f08:	42000117 	ldw	r8,4(r8)
    4f0c:	01c00074 	movhi	r7,1
    4f10:	1a87c83a 	sub	r3,r3,r10
    4f14:	1a400217 	ldw	r9,8(r3)
    4f18:	39c2ea04 	addi	r7,r7,2984
    4f1c:	1285883a 	add	r2,r2,r10
    4f20:	4200004c 	andi	r8,r8,1
    4f24:	49c04c26 	beq	r9,r7,5058 <_free_r+0x1c0>
    4f28:	1a800317 	ldw	r10,12(r3)
    4f2c:	4a800315 	stw	r10,12(r9)
    4f30:	52400215 	stw	r9,8(r10)
    4f34:	40007126 	beq	r8,zero,50fc <_free_r+0x264>
    4f38:	11400054 	ori	r5,r2,1
    4f3c:	19400115 	stw	r5,4(r3)
    4f40:	30800015 	stw	r2,0(r6)
    4f44:	11408028 	cmpgeui	r5,r2,512
    4f48:	28002c1e 	bne	r5,zero,4ffc <_free_r+0x164>
    4f4c:	100ad0fa 	srli	r5,r2,3
    4f50:	100cd17a 	srli	r6,r2,5
    4f54:	00800044 	movi	r2,1
    4f58:	29400044 	addi	r5,r5,1
    4f5c:	280a90fa 	slli	r5,r5,3
    4f60:	21c00117 	ldw	r7,4(r4)
    4f64:	1184983a 	sll	r2,r2,r6
    4f68:	214b883a 	add	r5,r4,r5
    4f6c:	29800017 	ldw	r6,0(r5)
    4f70:	11c4b03a 	or	r2,r2,r7
    4f74:	29fffe04 	addi	r7,r5,-8
    4f78:	19c00315 	stw	r7,12(r3)
    4f7c:	19800215 	stw	r6,8(r3)
    4f80:	20800115 	stw	r2,4(r4)
    4f84:	28c00015 	stw	r3,0(r5)
    4f88:	30c00315 	stw	r3,12(r6)
    4f8c:	8809883a 	mov	r4,r17
    4f90:	dfc00217 	ldw	ra,8(sp)
    4f94:	dc400117 	ldw	r17,4(sp)
    4f98:	dc000017 	ldw	r16,0(sp)
    4f9c:	dec00304 	addi	sp,sp,12
    4fa0:	000e19c1 	jmpi	e19c <__malloc_unlock>
    4fa4:	41c00117 	ldw	r7,4(r8)
    4fa8:	39c0004c 	andi	r7,r7,1
    4fac:	38000e1e 	bne	r7,zero,4fe8 <_free_r+0x150>
    4fb0:	01c00074 	movhi	r7,1
    4fb4:	1145883a 	add	r2,r2,r5
    4fb8:	39c2ea04 	addi	r7,r7,2984
    4fbc:	31400217 	ldw	r5,8(r6)
    4fc0:	12400054 	ori	r9,r2,1
    4fc4:	1891883a 	add	r8,r3,r2
    4fc8:	29c05226 	beq	r5,r7,5114 <_free_r+0x27c>
    4fcc:	31800317 	ldw	r6,12(r6)
    4fd0:	29800315 	stw	r6,12(r5)
    4fd4:	31400215 	stw	r5,8(r6)
    4fd8:	1a400115 	stw	r9,4(r3)
    4fdc:	40800015 	stw	r2,0(r8)
    4fe0:	003fd806 	br	4f44 <_free_r+0xac>
    4fe4:	f800283a 	ret
    4fe8:	11400054 	ori	r5,r2,1
    4fec:	817fff15 	stw	r5,-4(r16)
    4ff0:	30800015 	stw	r2,0(r6)
    4ff4:	11408028 	cmpgeui	r5,r2,512
    4ff8:	283fd426 	beq	r5,zero,4f4c <_free_r+0xb4>
    4ffc:	100ad27a 	srli	r5,r2,9
    5000:	29800168 	cmpgeui	r6,r5,5
    5004:	3000341e 	bne	r6,zero,50d8 <_free_r+0x240>
    5008:	100ad1ba 	srli	r5,r2,6
    500c:	29800e44 	addi	r6,r5,57
    5010:	300c90fa 	slli	r6,r6,3
    5014:	29c00e04 	addi	r7,r5,56
    5018:	218d883a 	add	r6,r4,r6
    501c:	31400017 	ldw	r5,0(r6)
    5020:	31bffe04 	addi	r6,r6,-8
    5024:	31404226 	beq	r6,r5,5130 <_free_r+0x298>
    5028:	01ffff04 	movi	r7,-4
    502c:	29000117 	ldw	r4,4(r5)
    5030:	21c8703a 	and	r4,r4,r7
    5034:	1100022e 	bgeu	r2,r4,5040 <_free_r+0x1a8>
    5038:	29400217 	ldw	r5,8(r5)
    503c:	317ffb1e 	bne	r6,r5,502c <_free_r+0x194>
    5040:	29800317 	ldw	r6,12(r5)
    5044:	19800315 	stw	r6,12(r3)
    5048:	19400215 	stw	r5,8(r3)
    504c:	30c00215 	stw	r3,8(r6)
    5050:	28c00315 	stw	r3,12(r5)
    5054:	003fcd06 	br	4f8c <_free_r+0xf4>
    5058:	40004d1e 	bne	r8,zero,5190 <_free_r+0x2f8>
    505c:	31000317 	ldw	r4,12(r6)
    5060:	31800217 	ldw	r6,8(r6)
    5064:	2885883a 	add	r2,r5,r2
    5068:	11400054 	ori	r5,r2,1
    506c:	31000315 	stw	r4,12(r6)
    5070:	21800215 	stw	r6,8(r4)
    5074:	19400115 	stw	r5,4(r3)
    5078:	1887883a 	add	r3,r3,r2
    507c:	18800015 	stw	r2,0(r3)
    5080:	003fc206 	br	4f8c <_free_r+0xf4>
    5084:	39c0004c 	andi	r7,r7,1
    5088:	1145883a 	add	r2,r2,r5
    508c:	3800071e 	bne	r7,zero,50ac <_free_r+0x214>
    5090:	81fffe17 	ldw	r7,-8(r16)
    5094:	19c7c83a 	sub	r3,r3,r7
    5098:	19400317 	ldw	r5,12(r3)
    509c:	19800217 	ldw	r6,8(r3)
    50a0:	11c5883a 	add	r2,r2,r7
    50a4:	31400315 	stw	r5,12(r6)
    50a8:	29800215 	stw	r6,8(r5)
    50ac:	01400074 	movhi	r5,1
    50b0:	11800054 	ori	r6,r2,1
    50b4:	2948d317 	ldw	r5,9036(r5)
    50b8:	19800115 	stw	r6,4(r3)
    50bc:	20c00215 	stw	r3,8(r4)
    50c0:	117fb236 	bltu	r2,r5,4f8c <_free_r+0xf4>
    50c4:	00800074 	movhi	r2,1
    50c8:	1148e217 	ldw	r5,9096(r2)
    50cc:	8809883a 	mov	r4,r17
    50d0:	0004d700 	call	4d70 <_malloc_trim_r>
    50d4:	003fad06 	br	4f8c <_free_r+0xf4>
    50d8:	29800568 	cmpgeui	r6,r5,21
    50dc:	30000926 	beq	r6,zero,5104 <_free_r+0x26c>
    50e0:	29801568 	cmpgeui	r6,r5,85
    50e4:	3000191e 	bne	r6,zero,514c <_free_r+0x2b4>
    50e8:	100ad33a 	srli	r5,r2,12
    50ec:	29801bc4 	addi	r6,r5,111
    50f0:	300c90fa 	slli	r6,r6,3
    50f4:	29c01b84 	addi	r7,r5,110
    50f8:	003fc706 	br	5018 <_free_r+0x180>
    50fc:	1145883a 	add	r2,r2,r5
    5100:	003fae06 	br	4fbc <_free_r+0x124>
    5104:	29801704 	addi	r6,r5,92
    5108:	300c90fa 	slli	r6,r6,3
    510c:	29c016c4 	addi	r7,r5,91
    5110:	003fc106 	br	5018 <_free_r+0x180>
    5114:	20c00515 	stw	r3,20(r4)
    5118:	20c00415 	stw	r3,16(r4)
    511c:	19c00315 	stw	r7,12(r3)
    5120:	19c00215 	stw	r7,8(r3)
    5124:	1a400115 	stw	r9,4(r3)
    5128:	40800015 	stw	r2,0(r8)
    512c:	003f9706 	br	4f8c <_free_r+0xf4>
    5130:	380fd0ba 	srai	r7,r7,2
    5134:	00800044 	movi	r2,1
    5138:	22000117 	ldw	r8,4(r4)
    513c:	11ce983a 	sll	r7,r2,r7
    5140:	3a0eb03a 	or	r7,r7,r8
    5144:	21c00115 	stw	r7,4(r4)
    5148:	003fbe06 	br	5044 <_free_r+0x1ac>
    514c:	29805568 	cmpgeui	r6,r5,341
    5150:	3000051e 	bne	r6,zero,5168 <_free_r+0x2d0>
    5154:	100ad3fa 	srli	r5,r2,15
    5158:	29801e04 	addi	r6,r5,120
    515c:	300c90fa 	slli	r6,r6,3
    5160:	29c01dc4 	addi	r7,r5,119
    5164:	003fac06 	br	5018 <_free_r+0x180>
    5168:	29415568 	cmpgeui	r5,r5,1365
    516c:	2800051e 	bne	r5,zero,5184 <_free_r+0x2ec>
    5170:	100ad4ba 	srli	r5,r2,18
    5174:	29801f44 	addi	r6,r5,125
    5178:	300c90fa 	slli	r6,r6,3
    517c:	29c01f04 	addi	r7,r5,124
    5180:	003fa506 	br	5018 <_free_r+0x180>
    5184:	0180fe04 	movi	r6,1016
    5188:	01c01f84 	movi	r7,126
    518c:	003fa206 	br	5018 <_free_r+0x180>
    5190:	11000054 	ori	r4,r2,1
    5194:	19000115 	stw	r4,4(r3)
    5198:	30800015 	stw	r2,0(r6)
    519c:	003f7b06 	br	4f8c <_free_r+0xf4>

000051a0 <__sfvwrite_r>:
    51a0:	f811883a 	mov	r8,ra
    51a4:	000e1ac0 	call	e1ac <_mcount>
    51a8:	403f883a 	mov	ra,r8
    51ac:	30800217 	ldw	r2,8(r6)
    51b0:	1000a226 	beq	r2,zero,543c <__sfvwrite_r+0x29c>
    51b4:	defff404 	addi	sp,sp,-48
    51b8:	dfc00b15 	stw	ra,44(sp)
    51bc:	df000a15 	stw	fp,40(sp)
    51c0:	ddc00915 	stw	r23,36(sp)
    51c4:	dd800815 	stw	r22,32(sp)
    51c8:	dd400715 	stw	r21,28(sp)
    51cc:	dd000615 	stw	r20,24(sp)
    51d0:	dcc00515 	stw	r19,20(sp)
    51d4:	dc800415 	stw	r18,16(sp)
    51d8:	dc400315 	stw	r17,12(sp)
    51dc:	dc000215 	stw	r16,8(sp)
    51e0:	29c0030b 	ldhu	r7,12(r5)
    51e4:	302f883a 	mov	r23,r6
    51e8:	202b883a 	mov	r21,r4
    51ec:	3880020c 	andi	r2,r7,8
    51f0:	2821883a 	mov	r16,r5
    51f4:	10002226 	beq	r2,zero,5280 <__sfvwrite_r+0xe0>
    51f8:	28800417 	ldw	r2,16(r5)
    51fc:	10002026 	beq	r2,zero,5280 <__sfvwrite_r+0xe0>
    5200:	3880008c 	andi	r2,r7,2
    5204:	bc400017 	ldw	r17,0(r23)
    5208:	10002526 	beq	r2,zero,52a0 <__sfvwrite_r+0x100>
    520c:	80800917 	ldw	r2,36(r16)
    5210:	81400717 	ldw	r5,28(r16)
    5214:	05200034 	movhi	r20,32768
    5218:	0027883a 	mov	r19,zero
    521c:	0025883a 	mov	r18,zero
    5220:	a53f0004 	addi	r20,r20,-1024
    5224:	980d883a 	mov	r6,r19
    5228:	a809883a 	mov	r4,r21
    522c:	90001026 	beq	r18,zero,5270 <__sfvwrite_r+0xd0>
    5230:	900f883a 	mov	r7,r18
    5234:	a480012e 	bgeu	r20,r18,523c <__sfvwrite_r+0x9c>
    5238:	a00f883a 	mov	r7,r20
    523c:	103ee83a 	callr	r2
    5240:	0080790e 	bge	zero,r2,5428 <__sfvwrite_r+0x288>
    5244:	b9000217 	ldw	r4,8(r23)
    5248:	98a7883a 	add	r19,r19,r2
    524c:	90a5c83a 	sub	r18,r18,r2
    5250:	2085c83a 	sub	r2,r4,r2
    5254:	b8800215 	stw	r2,8(r23)
    5258:	10006226 	beq	r2,zero,53e4 <__sfvwrite_r+0x244>
    525c:	80800917 	ldw	r2,36(r16)
    5260:	81400717 	ldw	r5,28(r16)
    5264:	980d883a 	mov	r6,r19
    5268:	a809883a 	mov	r4,r21
    526c:	903ff01e 	bne	r18,zero,5230 <__sfvwrite_r+0x90>
    5270:	8cc00017 	ldw	r19,0(r17)
    5274:	8c800117 	ldw	r18,4(r17)
    5278:	8c400204 	addi	r17,r17,8
    527c:	003fe906 	br	5224 <__sfvwrite_r+0x84>
    5280:	800b883a 	mov	r5,r16
    5284:	a809883a 	mov	r4,r21
    5288:	0002a040 	call	2a04 <__swsetup_r>
    528c:	1000f31e 	bne	r2,zero,565c <__sfvwrite_r+0x4bc>
    5290:	81c0030b 	ldhu	r7,12(r16)
    5294:	bc400017 	ldw	r17,0(r23)
    5298:	3880008c 	andi	r2,r7,2
    529c:	103fdb1e 	bne	r2,zero,520c <__sfvwrite_r+0x6c>
    52a0:	3880004c 	andi	r2,r7,1
    52a4:	84800217 	ldw	r18,8(r16)
    52a8:	82000017 	ldw	r8,0(r16)
    52ac:	1000651e 	bne	r2,zero,5444 <__sfvwrite_r+0x2a4>
    52b0:	00a00034 	movhi	r2,32768
    52b4:	10bfff84 	addi	r2,r2,-2
    52b8:	00e00034 	movhi	r3,32768
    52bc:	d8800015 	stw	r2,0(sp)
    52c0:	18bfffc4 	addi	r2,r3,-1
    52c4:	0039883a 	mov	fp,zero
    52c8:	0027883a 	mov	r19,zero
    52cc:	d8800115 	stw	r2,4(sp)
    52d0:	98004026 	beq	r19,zero,53d4 <__sfvwrite_r+0x234>
    52d4:	3880800c 	andi	r2,r7,512
    52d8:	10009626 	beq	r2,zero,5534 <__sfvwrite_r+0x394>
    52dc:	902d883a 	mov	r22,r18
    52e0:	9c80ba36 	bltu	r19,r18,55cc <__sfvwrite_r+0x42c>
    52e4:	3881200c 	andi	r2,r7,1152
    52e8:	10002526 	beq	r2,zero,5380 <__sfvwrite_r+0x1e0>
    52ec:	81000517 	ldw	r4,20(r16)
    52f0:	81400417 	ldw	r5,16(r16)
    52f4:	98800044 	addi	r2,r19,1
    52f8:	210000e4 	muli	r4,r4,3
    52fc:	4165c83a 	sub	r18,r8,r5
    5300:	1485883a 	add	r2,r2,r18
    5304:	2028d7fa 	srli	r20,r4,31
    5308:	a109883a 	add	r4,r20,r4
    530c:	2029d07a 	srai	r20,r4,1
    5310:	a00d883a 	mov	r6,r20
    5314:	a080022e 	bgeu	r20,r2,5320 <__sfvwrite_r+0x180>
    5318:	1029883a 	mov	r20,r2
    531c:	100d883a 	mov	r6,r2
    5320:	39c1000c 	andi	r7,r7,1024
    5324:	3800bd26 	beq	r7,zero,561c <__sfvwrite_r+0x47c>
    5328:	a809883a 	mov	r4,r21
    532c:	300b883a 	mov	r5,r6
    5330:	0005a600 	call	5a60 <_malloc_r>
    5334:	1009883a 	mov	r4,r2
    5338:	1000c426 	beq	r2,zero,564c <__sfvwrite_r+0x4ac>
    533c:	81400417 	ldw	r5,16(r16)
    5340:	900d883a 	mov	r6,r18
    5344:	00004ec0 	call	4ec <memcpy>
    5348:	1009883a 	mov	r4,r2
    534c:	8080030b 	ldhu	r2,12(r16)
    5350:	00fedfc4 	movi	r3,-1153
    5354:	10c4703a 	and	r2,r2,r3
    5358:	10802014 	ori	r2,r2,128
    535c:	8080030d 	sth	r2,12(r16)
    5360:	2491883a 	add	r8,r4,r18
    5364:	a485c83a 	sub	r2,r20,r18
    5368:	81000415 	stw	r4,16(r16)
    536c:	82000015 	stw	r8,0(r16)
    5370:	85000515 	stw	r20,20(r16)
    5374:	9825883a 	mov	r18,r19
    5378:	80800215 	stw	r2,8(r16)
    537c:	982d883a 	mov	r22,r19
    5380:	4009883a 	mov	r4,r8
    5384:	b00d883a 	mov	r6,r22
    5388:	e00b883a 	mov	r5,fp
    538c:	00063240 	call	6324 <memmove>
    5390:	81000217 	ldw	r4,8(r16)
    5394:	80800017 	ldw	r2,0(r16)
    5398:	9829883a 	mov	r20,r19
    539c:	24a5c83a 	sub	r18,r4,r18
    53a0:	1585883a 	add	r2,r2,r22
    53a4:	84800215 	stw	r18,8(r16)
    53a8:	80800015 	stw	r2,0(r16)
    53ac:	0027883a 	mov	r19,zero
    53b0:	b8800217 	ldw	r2,8(r23)
    53b4:	e539883a 	add	fp,fp,r20
    53b8:	1529c83a 	sub	r20,r2,r20
    53bc:	bd000215 	stw	r20,8(r23)
    53c0:	a0000826 	beq	r20,zero,53e4 <__sfvwrite_r+0x244>
    53c4:	81c0030b 	ldhu	r7,12(r16)
    53c8:	84800217 	ldw	r18,8(r16)
    53cc:	82000017 	ldw	r8,0(r16)
    53d0:	983fc01e 	bne	r19,zero,52d4 <__sfvwrite_r+0x134>
    53d4:	8f000017 	ldw	fp,0(r17)
    53d8:	8cc00117 	ldw	r19,4(r17)
    53dc:	8c400204 	addi	r17,r17,8
    53e0:	003fbb06 	br	52d0 <__sfvwrite_r+0x130>
    53e4:	0005883a 	mov	r2,zero
    53e8:	dfc00b17 	ldw	ra,44(sp)
    53ec:	df000a17 	ldw	fp,40(sp)
    53f0:	ddc00917 	ldw	r23,36(sp)
    53f4:	dd800817 	ldw	r22,32(sp)
    53f8:	dd400717 	ldw	r21,28(sp)
    53fc:	dd000617 	ldw	r20,24(sp)
    5400:	dcc00517 	ldw	r19,20(sp)
    5404:	dc800417 	ldw	r18,16(sp)
    5408:	dc400317 	ldw	r17,12(sp)
    540c:	dc000217 	ldw	r16,8(sp)
    5410:	dec00c04 	addi	sp,sp,48
    5414:	f800283a 	ret
    5418:	800b883a 	mov	r5,r16
    541c:	a809883a 	mov	r4,r21
    5420:	00048300 	call	4830 <_fflush_r>
    5424:	10002026 	beq	r2,zero,54a8 <__sfvwrite_r+0x308>
    5428:	8080030b 	ldhu	r2,12(r16)
    542c:	10801014 	ori	r2,r2,64
    5430:	8080030d 	sth	r2,12(r16)
    5434:	00bfffc4 	movi	r2,-1
    5438:	003feb06 	br	53e8 <__sfvwrite_r+0x248>
    543c:	0005883a 	mov	r2,zero
    5440:	f800283a 	ret
    5444:	002d883a 	mov	r22,zero
    5448:	0027883a 	mov	r19,zero
    544c:	0005883a 	mov	r2,zero
    5450:	0039883a 	mov	fp,zero
    5454:	b0001d26 	beq	r22,zero,54cc <__sfvwrite_r+0x32c>
    5458:	10002026 	beq	r2,zero,54dc <__sfvwrite_r+0x33c>
    545c:	9829883a 	mov	r20,r19
    5460:	b500012e 	bgeu	r22,r20,5468 <__sfvwrite_r+0x2c8>
    5464:	b029883a 	mov	r20,r22
    5468:	80800417 	ldw	r2,16(r16)
    546c:	81c00517 	ldw	r7,20(r16)
    5470:	1200022e 	bgeu	r2,r8,547c <__sfvwrite_r+0x2dc>
    5474:	3ca5883a 	add	r18,r7,r18
    5478:	95002216 	blt	r18,r20,5504 <__sfvwrite_r+0x364>
    547c:	a1c05616 	blt	r20,r7,55d8 <__sfvwrite_r+0x438>
    5480:	80800917 	ldw	r2,36(r16)
    5484:	81400717 	ldw	r5,28(r16)
    5488:	e00d883a 	mov	r6,fp
    548c:	a809883a 	mov	r4,r21
    5490:	103ee83a 	callr	r2
    5494:	1025883a 	mov	r18,r2
    5498:	00bfe30e 	bge	zero,r2,5428 <__sfvwrite_r+0x288>
    549c:	9ca7c83a 	sub	r19,r19,r18
    54a0:	983fdd26 	beq	r19,zero,5418 <__sfvwrite_r+0x278>
    54a4:	00800044 	movi	r2,1
    54a8:	b9800217 	ldw	r6,8(r23)
    54ac:	e4b9883a 	add	fp,fp,r18
    54b0:	b4adc83a 	sub	r22,r22,r18
    54b4:	34a5c83a 	sub	r18,r6,r18
    54b8:	bc800215 	stw	r18,8(r23)
    54bc:	903fc926 	beq	r18,zero,53e4 <__sfvwrite_r+0x244>
    54c0:	84800217 	ldw	r18,8(r16)
    54c4:	82000017 	ldw	r8,0(r16)
    54c8:	b03fe31e 	bne	r22,zero,5458 <__sfvwrite_r+0x2b8>
    54cc:	8d800117 	ldw	r22,4(r17)
    54d0:	8f000017 	ldw	fp,0(r17)
    54d4:	8c400204 	addi	r17,r17,8
    54d8:	b03ffc26 	beq	r22,zero,54cc <__sfvwrite_r+0x32c>
    54dc:	b00d883a 	mov	r6,r22
    54e0:	01400284 	movi	r5,10
    54e4:	e009883a 	mov	r4,fp
    54e8:	da000015 	stw	r8,0(sp)
    54ec:	000624c0 	call	624c <memchr>
    54f0:	da000017 	ldw	r8,0(sp)
    54f4:	10004626 	beq	r2,zero,5610 <__sfvwrite_r+0x470>
    54f8:	10800044 	addi	r2,r2,1
    54fc:	1727c83a 	sub	r19,r2,fp
    5500:	003fd606 	br	545c <__sfvwrite_r+0x2bc>
    5504:	e00b883a 	mov	r5,fp
    5508:	4009883a 	mov	r4,r8
    550c:	900d883a 	mov	r6,r18
    5510:	00063240 	call	6324 <memmove>
    5514:	80800017 	ldw	r2,0(r16)
    5518:	800b883a 	mov	r5,r16
    551c:	a809883a 	mov	r4,r21
    5520:	1485883a 	add	r2,r2,r18
    5524:	80800015 	stw	r2,0(r16)
    5528:	00048300 	call	4830 <_fflush_r>
    552c:	103fdb26 	beq	r2,zero,549c <__sfvwrite_r+0x2fc>
    5530:	003fbd06 	br	5428 <__sfvwrite_r+0x288>
    5534:	80800417 	ldw	r2,16(r16)
    5538:	12001136 	bltu	r2,r8,5580 <__sfvwrite_r+0x3e0>
    553c:	85000517 	ldw	r20,20(r16)
    5540:	9d000f36 	bltu	r19,r20,5580 <__sfvwrite_r+0x3e0>
    5544:	d8800017 	ldw	r2,0(sp)
    5548:	14c02f2e 	bgeu	r2,r19,5608 <__sfvwrite_r+0x468>
    554c:	d9000117 	ldw	r4,4(sp)
    5550:	a00b883a 	mov	r5,r20
    5554:	000b24c0 	call	b24c <__divsi3>
    5558:	150f383a 	mul	r7,r2,r20
    555c:	82000917 	ldw	r8,36(r16)
    5560:	81400717 	ldw	r5,28(r16)
    5564:	e00d883a 	mov	r6,fp
    5568:	a809883a 	mov	r4,r21
    556c:	403ee83a 	callr	r8
    5570:	1029883a 	mov	r20,r2
    5574:	00bfac0e 	bge	zero,r2,5428 <__sfvwrite_r+0x288>
    5578:	9d27c83a 	sub	r19,r19,r20
    557c:	003f8c06 	br	53b0 <__sfvwrite_r+0x210>
    5580:	9029883a 	mov	r20,r18
    5584:	9c80012e 	bgeu	r19,r18,558c <__sfvwrite_r+0x3ec>
    5588:	9829883a 	mov	r20,r19
    558c:	4009883a 	mov	r4,r8
    5590:	a00d883a 	mov	r6,r20
    5594:	e00b883a 	mov	r5,fp
    5598:	00063240 	call	6324 <memmove>
    559c:	80800217 	ldw	r2,8(r16)
    55a0:	81000017 	ldw	r4,0(r16)
    55a4:	1505c83a 	sub	r2,r2,r20
    55a8:	2509883a 	add	r4,r4,r20
    55ac:	80800215 	stw	r2,8(r16)
    55b0:	81000015 	stw	r4,0(r16)
    55b4:	103ff01e 	bne	r2,zero,5578 <__sfvwrite_r+0x3d8>
    55b8:	800b883a 	mov	r5,r16
    55bc:	a809883a 	mov	r4,r21
    55c0:	00048300 	call	4830 <_fflush_r>
    55c4:	103fec26 	beq	r2,zero,5578 <__sfvwrite_r+0x3d8>
    55c8:	003f9706 	br	5428 <__sfvwrite_r+0x288>
    55cc:	9825883a 	mov	r18,r19
    55d0:	982d883a 	mov	r22,r19
    55d4:	003f6a06 	br	5380 <__sfvwrite_r+0x1e0>
    55d8:	4009883a 	mov	r4,r8
    55dc:	a00d883a 	mov	r6,r20
    55e0:	e00b883a 	mov	r5,fp
    55e4:	00063240 	call	6324 <memmove>
    55e8:	81000217 	ldw	r4,8(r16)
    55ec:	80800017 	ldw	r2,0(r16)
    55f0:	a025883a 	mov	r18,r20
    55f4:	2509c83a 	sub	r4,r4,r20
    55f8:	1505883a 	add	r2,r2,r20
    55fc:	81000215 	stw	r4,8(r16)
    5600:	80800015 	stw	r2,0(r16)
    5604:	003fa506 	br	549c <__sfvwrite_r+0x2fc>
    5608:	9809883a 	mov	r4,r19
    560c:	003fd006 	br	5550 <__sfvwrite_r+0x3b0>
    5610:	b5000044 	addi	r20,r22,1
    5614:	a027883a 	mov	r19,r20
    5618:	003f9106 	br	5460 <__sfvwrite_r+0x2c0>
    561c:	a809883a 	mov	r4,r21
    5620:	000778c0 	call	778c <_realloc_r>
    5624:	1009883a 	mov	r4,r2
    5628:	103f4d1e 	bne	r2,zero,5360 <__sfvwrite_r+0x1c0>
    562c:	81400417 	ldw	r5,16(r16)
    5630:	a809883a 	mov	r4,r21
    5634:	0004e980 	call	4e98 <_free_r>
    5638:	8080030b 	ldhu	r2,12(r16)
    563c:	00c00304 	movi	r3,12
    5640:	a8c00015 	stw	r3,0(r21)
    5644:	10bfdfcc 	andi	r2,r2,65407
    5648:	003f7806 	br	542c <__sfvwrite_r+0x28c>
    564c:	00c00304 	movi	r3,12
    5650:	8080030b 	ldhu	r2,12(r16)
    5654:	a8c00015 	stw	r3,0(r21)
    5658:	003f7406 	br	542c <__sfvwrite_r+0x28c>
    565c:	00bfffc4 	movi	r2,-1
    5660:	003f6106 	br	53e8 <__sfvwrite_r+0x248>

00005664 <_fwalk>:
    5664:	f811883a 	mov	r8,ra
    5668:	000e1ac0 	call	e1ac <_mcount>
    566c:	403f883a 	mov	ra,r8
    5670:	defffa04 	addi	sp,sp,-24
    5674:	dfc00515 	stw	ra,20(sp)
    5678:	dd000415 	stw	r20,16(sp)
    567c:	dcc00315 	stw	r19,12(sp)
    5680:	dc800215 	stw	r18,8(sp)
    5684:	dc400115 	stw	r17,4(sp)
    5688:	dc000015 	stw	r16,0(sp)
    568c:	0029883a 	mov	r20,zero
    5690:	2827883a 	mov	r19,r5
    5694:	2480b804 	addi	r18,r4,736
    5698:	94400117 	ldw	r17,4(r18)
    569c:	94000217 	ldw	r16,8(r18)
    56a0:	8c7fffc4 	addi	r17,r17,-1
    56a4:	88000d16 	blt	r17,zero,56dc <_fwalk+0x78>
    56a8:	8080030b 	ldhu	r2,12(r16)
    56ac:	8c7fffc4 	addi	r17,r17,-1
    56b0:	108000b0 	cmpltui	r2,r2,2
    56b4:	1000061e 	bne	r2,zero,56d0 <_fwalk+0x6c>
    56b8:	8080038f 	ldh	r2,14(r16)
    56bc:	8009883a 	mov	r4,r16
    56c0:	10bfffe0 	cmpeqi	r2,r2,-1
    56c4:	1000021e 	bne	r2,zero,56d0 <_fwalk+0x6c>
    56c8:	983ee83a 	callr	r19
    56cc:	a0a8b03a 	or	r20,r20,r2
    56d0:	88bfffd8 	cmpnei	r2,r17,-1
    56d4:	84001a04 	addi	r16,r16,104
    56d8:	103ff31e 	bne	r2,zero,56a8 <_fwalk+0x44>
    56dc:	94800017 	ldw	r18,0(r18)
    56e0:	903fed1e 	bne	r18,zero,5698 <_fwalk+0x34>
    56e4:	a005883a 	mov	r2,r20
    56e8:	dfc00517 	ldw	ra,20(sp)
    56ec:	dd000417 	ldw	r20,16(sp)
    56f0:	dcc00317 	ldw	r19,12(sp)
    56f4:	dc800217 	ldw	r18,8(sp)
    56f8:	dc400117 	ldw	r17,4(sp)
    56fc:	dc000017 	ldw	r16,0(sp)
    5700:	dec00604 	addi	sp,sp,24
    5704:	f800283a 	ret

00005708 <_fwalk_reent>:
    5708:	f811883a 	mov	r8,ra
    570c:	000e1ac0 	call	e1ac <_mcount>
    5710:	403f883a 	mov	ra,r8
    5714:	defff904 	addi	sp,sp,-28
    5718:	dfc00615 	stw	ra,24(sp)
    571c:	dd400515 	stw	r21,20(sp)
